
hello.elf:     file format elf32-littlearm


Disassembly of section .startup:

00400000 <_vector_table>:
  400000:	e59ff018 	ldr	pc, [pc, #24]	; 400020 <_excep_handlers>
  400004:	e59ff018 	ldr	pc, [pc, #24]	; 400024 <_excep_handlers+0x4>
  400008:	e59ff018 	ldr	pc, [pc, #24]	; 400028 <_excep_handlers+0x8>
  40000c:	e59ff018 	ldr	pc, [pc, #24]	; 40002c <_excep_handlers+0xc>
  400010:	e59ff018 	ldr	pc, [pc, #24]	; 400030 <_excep_handlers+0x10>
  400014:	e1a00000 	nop			; (mov r0, r0)
  400018:	e59ff018 	ldr	pc, [pc, #24]	; 400038 <_excep_handlers+0x18>
  40001c:	e59ff018 	ldr	pc, [pc, #24]	; 40003c <_excep_handlers+0x1c>

00400020 <_excep_handlers>:
  400020:	00400080 	subeq	r0, r0, r0, lsl #1
  400024:	00400084 	subeq	r0, r0, r4, lsl #1
  400028:	00400088 	subeq	r0, r0, r8, lsl #1
  40002c:	0040008c 	subeq	r0, r0, ip, lsl #1
  400030:	00400090 	umaaleq	r0, r0, r0, r0
  400034:	e1a00000 	nop			; (mov r0, r0)
  400038:	00400094 	umaaleq	r0, r0, r4, r0
  40003c:	00400098 	umaaleq	r0, r0, r8, r0
  400040:	79706f43 	ldmdbvc	r0!, {r0, r1, r6, r8, r9, sl, fp, sp, lr}^
  400044:	68676972 	stmdavs	r7!, {r1, r4, r5, r6, r8, fp, sp, lr}^
  400048:	43282074 	teqmi	r8, #116	; 0x74
  40004c:	6e552029 	cdpvs	0, 5, cr2, cr5, cr9, {1}
  400050:	72657669 	rsbvc	r7, r5, #110100480	; 0x6900000
  400054:	61646973 	smcvs	18067	; 0x4693
  400058:	65642064 	strbvs	r2, [r4, #-100]!	; 0x64
  40005c:	61724720 	cmnvs	r2, r0, lsr #14
  400060:	6164616e 	cmnvs	r4, lr, ror #2
  400064:	6c41202e 	mcrrvs	0, 2, r2, r1, cr14
  400068:	6952206c 	ldmdbvs	r2, {r2, r3, r5, r6, sp}^
  40006c:	73746867 	cmnvc	r4, #6750208	; 0x670000
  400070:	73655220 	cmnvc	r5, #32, 4
  400074:	65767265 	ldrbvs	r7, [r6, #-613]!	; 0x265
  400078:	00002e64 	andeq	r2, r0, r4, ror #28
  40007c:	e1a00000 	nop			; (mov r0, r0)

00400080 <_soft_reset_handler>:
  400080:	ea00000a 	b	4000b0 <_start>

00400084 <_undef_handler>:
  400084:	eafffffe 	b	400084 <_undef_handler>

00400088 <_swi_handler>:
  400088:	eafffffe 	b	400088 <_swi_handler>

0040008c <_pabt_handler>:
  40008c:	eafffffe 	b	40008c <_pabt_handler>

00400090 <_dabt_handler>:
  400090:	eafffffe 	b	400090 <_dabt_handler>

00400094 <_irq_handler>:
  400094:	eafffffe 	b	400094 <_irq_handler>

00400098 <_fiq_handler>:
  400098:	eafffffe 	b	400098 <_fiq_handler>

0040009c <_ram_init>:
  40009c:	e1500001 	cmp	r0, r1
  4000a0:	14802004 	strne	r2, [r0], #4
  4000a4:	1afffffc 	bne	40009c <_ram_init>
  4000a8:	e1a0f00e 	mov	pc, lr
  4000ac:	e1a00000 	nop			; (mov r0, r0)

004000b0 <_start>:
  4000b0:	e59f0050 	ldr	r0, [pc, #80]	; 400108 <_start+0x58>
  4000b4:	e59f1050 	ldr	r1, [pc, #80]	; 40010c <_start+0x5c>
  4000b8:	e59f2050 	ldr	r2, [pc, #80]	; 400110 <_start+0x60>
  4000bc:	ebfffff6 	bl	40009c <_ram_init>
  4000c0:	e321f0db 	msr	CPSR_c, #219	; 0xdb
  4000c4:	e59fd048 	ldr	sp, [pc, #72]	; 400114 <_start+0x64>
  4000c8:	e321f0d7 	msr	CPSR_c, #215	; 0xd7
  4000cc:	e59fd044 	ldr	sp, [pc, #68]	; 400118 <_start+0x68>
  4000d0:	e321f0df 	msr	CPSR_c, #223	; 0xdf
  4000d4:	e59fd040 	ldr	sp, [pc, #64]	; 40011c <_start+0x6c>
  4000d8:	e321f0d1 	msr	CPSR_c, #209	; 0xd1
  4000dc:	e59fd03c 	ldr	sp, [pc, #60]	; 400120 <_start+0x70>
  4000e0:	e321f0d2 	msr	CPSR_c, #210	; 0xd2
  4000e4:	e59fd038 	ldr	sp, [pc, #56]	; 400124 <_start+0x74>
  4000e8:	e321f0d3 	msr	CPSR_c, #211	; 0xd3
  4000ec:	e59fd034 	ldr	sp, [pc, #52]	; 400128 <_start+0x78>
  4000f0:	e59fc034 	ldr	ip, [pc, #52]	; 40012c <_start+0x7c>
  4000f4:	e1a0e00f 	mov	lr, pc
  4000f8:	e12fff1c 	bx	ip
  4000fc:	e321f010 	msr	CPSR_c, #16
  400100:	ea000067 	b	4002a4 <main>
  400104:	eafffffe 	b	400104 <_start+0x54>
  400108:	004178e0 	subeq	r7, r1, r0, ror #17
  40010c:	00418000 	subeq	r8, r1, r0
  400110:	deadbeef 	cdple	14, 10, cr11, cr13, cr15, {7}
  400114:	00417e00 	subeq	r7, r1, r0, lsl #28
  400118:	00417df0 	strdeq	r7, [r1], #-208	; 0xffffff30
  40011c:	00417ce0 	subeq	r7, r1, r0, ror #25
  400120:	00418000 	subeq	r8, r1, r0
  400124:	00417f00 	subeq	r7, r1, r0, lsl #30
  400128:	00417de0 	subeq	r7, r1, r0, ror #27
  40012c:	004003b4 	strheq	r0, [r0], #-52	; 0xffffffcc

Disassembly of section .text:

00400130 <gpio_init>:
  400130:	e52db004 	push	{fp}		; (str fp, [sp, #-4]!)
  400134:	e28db000 	add	fp, sp, #0
  400138:	e3a03112 	mov	r3, #-2147483644	; 0x80000004
  40013c:	e3a01a01 	mov	r1, #4096	; 0x1000
  400140:	e3a02a02 	mov	r2, #8192	; 0x2000
  400144:	e1812002 	orr	r2, r1, r2
  400148:	e5832000 	str	r2, [r3]
  40014c:	e3a03102 	mov	r3, #-2147483648	; 0x80000000
  400150:	e3a01302 	mov	r1, #134217728	; 0x8000000
  400154:	e3a02301 	mov	r2, #67108864	; 0x4000000
  400158:	e1812002 	orr	r2, r1, r2
  40015c:	e5832000 	str	r2, [r3]
  400160:	e59f3018 	ldr	r3, [pc, #24]	; 400180 <gpio_init+0x50>
  400164:	e3a01302 	mov	r1, #134217728	; 0x8000000
  400168:	e3a02301 	mov	r2, #67108864	; 0x4000000
  40016c:	e1812002 	orr	r2, r1, r2
  400170:	e5832000 	str	r2, [r3]
  400174:	e24bd000 	sub	sp, fp, #0
  400178:	e49db004 	pop	{fp}		; (ldr fp, [sp], #4)
  40017c:	e12fff1e 	bx	lr
  400180:	80000048 	andhi	r0, r0, r8, asr #32

00400184 <leds_on>:
  400184:	e52db004 	push	{fp}		; (str fp, [sp, #-4]!)
  400188:	e28db000 	add	fp, sp, #0
  40018c:	e24dd00c 	sub	sp, sp, #12
  400190:	e50b0008 	str	r0, [fp, #-8]
  400194:	e59f3010 	ldr	r3, [pc, #16]	; 4001ac <leds_on+0x28>
  400198:	e51b2008 	ldr	r2, [fp, #-8]
  40019c:	e5832000 	str	r2, [r3]
  4001a0:	e24bd000 	sub	sp, fp, #0
  4001a4:	e49db004 	pop	{fp}		; (ldr fp, [sp], #4)
  4001a8:	e12fff1e 	bx	lr
  4001ac:	8000004c 	andhi	r0, r0, ip, asr #32

004001b0 <leds_off>:
  4001b0:	e52db004 	push	{fp}		; (str fp, [sp, #-4]!)
  4001b4:	e28db000 	add	fp, sp, #0
  4001b8:	e24dd00c 	sub	sp, sp, #12
  4001bc:	e50b0008 	str	r0, [fp, #-8]
  4001c0:	e59f3010 	ldr	r3, [pc, #16]	; 4001d8 <leds_off+0x28>
  4001c4:	e51b2008 	ldr	r2, [fp, #-8]
  4001c8:	e5832000 	str	r2, [r3]
  4001cc:	e24bd000 	sub	sp, fp, #0
  4001d0:	e49db004 	pop	{fp}		; (ldr fp, [sp], #4)
  4001d4:	e12fff1e 	bx	lr
  4001d8:	80000054 	andhi	r0, r0, r4, asr r0

004001dc <pause>:
  4001dc:	e52db004 	push	{fp}		; (str fp, [sp, #-4]!)
  4001e0:	e28db000 	add	fp, sp, #0
  4001e4:	e24dd00c 	sub	sp, sp, #12
  4001e8:	e3a03000 	mov	r3, #0
  4001ec:	e50b3008 	str	r3, [fp, #-8]
  4001f0:	ea000002 	b	400200 <pause+0x24>
  4001f4:	e51b3008 	ldr	r3, [fp, #-8]
  4001f8:	e2833001 	add	r3, r3, #1
  4001fc:	e50b3008 	str	r3, [fp, #-8]
  400200:	e3a03801 	mov	r3, #65536	; 0x10000
  400204:	e51b2008 	ldr	r2, [fp, #-8]
  400208:	e1520003 	cmp	r2, r3
  40020c:	3afffff8 	bcc	4001f4 <pause+0x18>
  400210:	e24bd000 	sub	sp, fp, #0
  400214:	e49db004 	pop	{fp}		; (ldr fp, [sp], #4)
  400218:	e12fff1e 	bx	lr

0040021c <test_buttons>:
  40021c:	e52db004 	push	{fp}		; (str fp, [sp, #-4]!)
  400220:	e28db000 	add	fp, sp, #0
  400224:	e3a03122 	mov	r3, #-2147483640	; 0x80000008
  400228:	e5932000 	ldr	r2, [r3]
  40022c:	e3a03502 	mov	r3, #8388608	; 0x800000
  400230:	e0022003 	and	r2, r2, r3
  400234:	e3a03502 	mov	r3, #8388608	; 0x800000
  400238:	e1520003 	cmp	r2, r3
  40023c:	1a000006 	bne	40025c <test_buttons+0x40>
  400240:	e3a02a01 	mov	r2, #4096	; 0x1000
  400244:	e59f3050 	ldr	r3, [pc, #80]	; 40029c <test_buttons+0x80>
  400248:	e5832000 	str	r2, [r3]
  40024c:	e59f304c 	ldr	r3, [pc, #76]	; 4002a0 <test_buttons+0x84>
  400250:	e3a02a02 	mov	r2, #8192	; 0x2000
  400254:	e5832000 	str	r2, [r3]
  400258:	ea00000c 	b	400290 <test_buttons+0x74>
  40025c:	e3a03122 	mov	r3, #-2147483640	; 0x80000008
  400260:	e5932000 	ldr	r2, [r3]
  400264:	e3a03501 	mov	r3, #4194304	; 0x400000
  400268:	e0022003 	and	r2, r2, r3
  40026c:	e3a03501 	mov	r3, #4194304	; 0x400000
  400270:	e1520003 	cmp	r2, r3
  400274:	1a000005 	bne	400290 <test_buttons+0x74>
  400278:	e3a02a02 	mov	r2, #8192	; 0x2000
  40027c:	e59f3018 	ldr	r3, [pc, #24]	; 40029c <test_buttons+0x80>
  400280:	e5832000 	str	r2, [r3]
  400284:	e59f3014 	ldr	r3, [pc, #20]	; 4002a0 <test_buttons+0x84>
  400288:	e3a02a01 	mov	r2, #4096	; 0x1000
  40028c:	e5832000 	str	r2, [r3]
  400290:	e24bd000 	sub	sp, fp, #0
  400294:	e49db004 	pop	{fp}		; (ldr fp, [sp], #4)
  400298:	e12fff1e 	bx	lr
  40029c:	00402b50 	subeq	r2, r0, r0, asr fp
  4002a0:	80000054 	andhi	r0, r0, r4, asr r0

004002a4 <main>:
  4002a4:	e92d4800 	push	{fp, lr}
  4002a8:	e28db004 	add	fp, sp, #4
  4002ac:	ebffff9f 	bl	400130 <gpio_init>
  4002b0:	e3a02a01 	mov	r2, #4096	; 0x1000
  4002b4:	e59f3034 	ldr	r3, [pc, #52]	; 4002f0 <main+0x4c>
  4002b8:	e5832000 	str	r2, [r3]
  4002bc:	26889912 	pkhbtcs	r9, r8, r2, lsl #18
  4002c0:	ebffffd5 	bl	40021c <test_buttons>
  4002c4:	e59f3024 	ldr	r3, [pc, #36]	; 4002f0 <main+0x4c>
  4002c8:	e5933000 	ldr	r3, [r3]
  4002cc:	e1a00003 	mov	r0, r3
  4002d0:	ebffffab 	bl	400184 <leds_on>
  4002d4:	ebffffc0 	bl	4001dc <pause>
  4002d8:	e59f3010 	ldr	r3, [pc, #16]	; 4002f0 <main+0x4c>
  4002dc:	e5933000 	ldr	r3, [r3]
  4002e0:	e1a00003 	mov	r0, r3
  4002e4:	ebffffb1 	bl	4001b0 <leds_off>
  4002e8:	ebffffbb 	bl	4001dc <pause>
  4002ec:	eafffff3 	b	4002c0 <main+0x1c>
  4002f0:	00402b50 	subeq	r2, r0, r0, asr fp

004002f4 <bsp_excep_init>:
  4002f4:	e92d4800 	push	{fp, lr}
  4002f8:	e28db004 	add	fp, sp, #4
  4002fc:	eb00016d 	bl	4008b8 <excep_init>
  400300:	eb0001d1 	bl	400a4c <itc_init>
  400304:	e24bd004 	sub	sp, fp, #4
  400308:	e8bd4800 	pop	{fp, lr}
  40030c:	e12fff1e 	bx	lr

00400310 <bsp_sys_init>:
  400310:	e92d4800 	push	{fp, lr}
  400314:	e28db004 	add	fp, sp, #4
  400318:	e3a00000 	mov	r0, #0
  40031c:	e59f1020 	ldr	r1, [pc, #32]	; 400344 <bsp_sys_init+0x34>
  400320:	e59f2020 	ldr	r2, [pc, #32]	; 400348 <bsp_sys_init+0x38>
  400324:	eb000214 	bl	400b7c <uart_init>
  400328:	e3a00001 	mov	r0, #1
  40032c:	e59f1010 	ldr	r1, [pc, #16]	; 400344 <bsp_sys_init+0x34>
  400330:	e59f2014 	ldr	r2, [pc, #20]	; 40034c <bsp_sys_init+0x3c>
  400334:	eb000210 	bl	400b7c <uart_init>
  400338:	e24bd004 	sub	sp, fp, #4
  40033c:	e8bd4800 	pop	{fp, lr}
  400340:	e12fff1e 	bx	lr
  400344:	0001c200 	andeq	ip, r1, r0, lsl #4
  400348:	00401cd8 	ldrdeq	r1, [r0], #-200	; 0xffffff38
  40034c:	00401ce4 	subeq	r1, r0, r4, ror #25

00400350 <bsp_io_redirect>:
  400350:	e92d4800 	push	{fp, lr}
  400354:	e28db004 	add	fp, sp, #4
  400358:	e24dd010 	sub	sp, sp, #16
  40035c:	e50b0008 	str	r0, [fp, #-8]
  400360:	e50b100c 	str	r1, [fp, #-12]
  400364:	e50b2010 	str	r2, [fp, #-16]
  400368:	e3a00000 	mov	r0, #0
  40036c:	e51b1008 	ldr	r1, [fp, #-8]
  400370:	e3a02000 	mov	r2, #0
  400374:	e59f3034 	ldr	r3, [pc, #52]	; 4003b0 <bsp_io_redirect+0x60>
  400378:	eb000124 	bl	400810 <redirect_fd>
  40037c:	e3a00001 	mov	r0, #1
  400380:	e51b100c 	ldr	r1, [fp, #-12]
  400384:	e3a02001 	mov	r2, #1
  400388:	e59f3020 	ldr	r3, [pc, #32]	; 4003b0 <bsp_io_redirect+0x60>
  40038c:	eb00011f 	bl	400810 <redirect_fd>
  400390:	e3a00002 	mov	r0, #2
  400394:	e51b1010 	ldr	r1, [fp, #-16]
  400398:	e3a02001 	mov	r2, #1
  40039c:	e59f300c 	ldr	r3, [pc, #12]	; 4003b0 <bsp_io_redirect+0x60>
  4003a0:	eb00011a 	bl	400810 <redirect_fd>
  4003a4:	e24bd004 	sub	sp, fp, #4
  4003a8:	e8bd4800 	pop	{fp, lr}
  4003ac:	e12fff1e 	bx	lr
  4003b0:	000001ff 	strdeq	r0, [r0], -pc	; <UNPREDICTABLE>

004003b4 <bsp_init>:
  4003b4:	e92d4800 	push	{fp, lr}
  4003b8:	e28db004 	add	fp, sp, #4
  4003bc:	ebffffcc 	bl	4002f4 <bsp_excep_init>
  4003c0:	ebffffd2 	bl	400310 <bsp_sys_init>
  4003c4:	e59f0014 	ldr	r0, [pc, #20]	; 4003e0 <bsp_init+0x2c>
  4003c8:	e59f1010 	ldr	r1, [pc, #16]	; 4003e0 <bsp_init+0x2c>
  4003cc:	e59f200c 	ldr	r2, [pc, #12]	; 4003e0 <bsp_init+0x2c>
  4003d0:	ebffffde 	bl	400350 <bsp_io_redirect>
  4003d4:	e24bd004 	sub	sp, fp, #4
  4003d8:	e8bd4800 	pop	{fp, lr}
  4003dc:	e12fff1e 	bx	lr
  4003e0:	00401cd8 	ldrdeq	r1, [r0], #-200	; 0xffffff38

004003e4 <bsp_register_dev>:
  4003e4:	e52db004 	push	{fp}		; (str fp, [sp, #-4]!)
  4003e8:	e28db000 	add	fp, sp, #0
  4003ec:	e24dd01c 	sub	sp, sp, #28
  4003f0:	e50b0010 	str	r0, [fp, #-16]
  4003f4:	e50b1014 	str	r1, [fp, #-20]
  4003f8:	e50b2018 	str	r2, [fp, #-24]
  4003fc:	e50b301c 	str	r3, [fp, #-28]
  400400:	e3e03000 	mvn	r3, #0
  400404:	e50b3008 	str	r3, [fp, #-8]
  400408:	e59f31b8 	ldr	r3, [pc, #440]	; 4005c8 <bsp_register_dev+0x1e4>
  40040c:	e5933000 	ldr	r3, [r3]
  400410:	e3530007 	cmp	r3, #7
  400414:	8a000066 	bhi	4005b4 <bsp_register_dev+0x1d0>
  400418:	e59f31a8 	ldr	r3, [pc, #424]	; 4005c8 <bsp_register_dev+0x1e4>
  40041c:	e5933000 	ldr	r3, [r3]
  400420:	e50b3008 	str	r3, [fp, #-8]
  400424:	e59f319c 	ldr	r3, [pc, #412]	; 4005c8 <bsp_register_dev+0x1e4>
  400428:	e5933000 	ldr	r3, [r3]
  40042c:	e2832001 	add	r2, r3, #1
  400430:	e59f3190 	ldr	r3, [pc, #400]	; 4005c8 <bsp_register_dev+0x1e4>
  400434:	e5832000 	str	r2, [r3]
  400438:	e59f118c 	ldr	r1, [pc, #396]	; 4005cc <bsp_register_dev+0x1e8>
  40043c:	e51b2008 	ldr	r2, [fp, #-8]
  400440:	e1a03002 	mov	r3, r2
  400444:	e1a03183 	lsl	r3, r3, #3
  400448:	e0833002 	add	r3, r3, r2
  40044c:	e1a03103 	lsl	r3, r3, #2
  400450:	e0813003 	add	r3, r1, r3
  400454:	e51b2010 	ldr	r2, [fp, #-16]
  400458:	e5832000 	str	r2, [r3]
  40045c:	e59f1168 	ldr	r1, [pc, #360]	; 4005cc <bsp_register_dev+0x1e8>
  400460:	e51b2008 	ldr	r2, [fp, #-8]
  400464:	e1a03002 	mov	r3, r2
  400468:	e1a03183 	lsl	r3, r3, #3
  40046c:	e0833002 	add	r3, r3, r2
  400470:	e1a03103 	lsl	r3, r3, #2
  400474:	e0813003 	add	r3, r1, r3
  400478:	e51b2014 	ldr	r2, [fp, #-20]
  40047c:	e5832004 	str	r2, [r3, #4]
  400480:	e59f0144 	ldr	r0, [pc, #324]	; 4005cc <bsp_register_dev+0x1e8>
  400484:	e51b2008 	ldr	r2, [fp, #-8]
  400488:	e3a01008 	mov	r1, #8
  40048c:	e1a03002 	mov	r3, r2
  400490:	e1a03183 	lsl	r3, r3, #3
  400494:	e0833002 	add	r3, r3, r2
  400498:	e1a03103 	lsl	r3, r3, #2
  40049c:	e0803003 	add	r3, r0, r3
  4004a0:	e0833001 	add	r3, r3, r1
  4004a4:	e51b2018 	ldr	r2, [fp, #-24]
  4004a8:	e5832000 	str	r2, [r3]
  4004ac:	e59f0118 	ldr	r0, [pc, #280]	; 4005cc <bsp_register_dev+0x1e8>
  4004b0:	e51b2008 	ldr	r2, [fp, #-8]
  4004b4:	e3a01008 	mov	r1, #8
  4004b8:	e1a03002 	mov	r3, r2
  4004bc:	e1a03183 	lsl	r3, r3, #3
  4004c0:	e0833002 	add	r3, r3, r2
  4004c4:	e1a03103 	lsl	r3, r3, #2
  4004c8:	e0803003 	add	r3, r0, r3
  4004cc:	e0833001 	add	r3, r3, r1
  4004d0:	e51b201c 	ldr	r2, [fp, #-28]
  4004d4:	e5832004 	str	r2, [r3, #4]
  4004d8:	e59f00ec 	ldr	r0, [pc, #236]	; 4005cc <bsp_register_dev+0x1e8>
  4004dc:	e51b2008 	ldr	r2, [fp, #-8]
  4004e0:	e3a01010 	mov	r1, #16
  4004e4:	e1a03002 	mov	r3, r2
  4004e8:	e1a03183 	lsl	r3, r3, #3
  4004ec:	e0833002 	add	r3, r3, r2
  4004f0:	e1a03103 	lsl	r3, r3, #2
  4004f4:	e0803003 	add	r3, r0, r3
  4004f8:	e0833001 	add	r3, r3, r1
  4004fc:	e59b2004 	ldr	r2, [fp, #4]
  400500:	e5832000 	str	r2, [r3]
  400504:	e59f00c0 	ldr	r0, [pc, #192]	; 4005cc <bsp_register_dev+0x1e8>
  400508:	e51b2008 	ldr	r2, [fp, #-8]
  40050c:	e3a01010 	mov	r1, #16
  400510:	e1a03002 	mov	r3, r2
  400514:	e1a03183 	lsl	r3, r3, #3
  400518:	e0833002 	add	r3, r3, r2
  40051c:	e1a03103 	lsl	r3, r3, #2
  400520:	e0803003 	add	r3, r0, r3
  400524:	e0833001 	add	r3, r3, r1
  400528:	e59b2008 	ldr	r2, [fp, #8]
  40052c:	e5832004 	str	r2, [r3, #4]
  400530:	e59f0094 	ldr	r0, [pc, #148]	; 4005cc <bsp_register_dev+0x1e8>
  400534:	e51b2008 	ldr	r2, [fp, #-8]
  400538:	e3a01018 	mov	r1, #24
  40053c:	e1a03002 	mov	r3, r2
  400540:	e1a03183 	lsl	r3, r3, #3
  400544:	e0833002 	add	r3, r3, r2
  400548:	e1a03103 	lsl	r3, r3, #2
  40054c:	e0803003 	add	r3, r0, r3
  400550:	e0833001 	add	r3, r3, r1
  400554:	e59b200c 	ldr	r2, [fp, #12]
  400558:	e5832000 	str	r2, [r3]
  40055c:	e59f0068 	ldr	r0, [pc, #104]	; 4005cc <bsp_register_dev+0x1e8>
  400560:	e51b2008 	ldr	r2, [fp, #-8]
  400564:	e3a01018 	mov	r1, #24
  400568:	e1a03002 	mov	r3, r2
  40056c:	e1a03183 	lsl	r3, r3, #3
  400570:	e0833002 	add	r3, r3, r2
  400574:	e1a03103 	lsl	r3, r3, #2
  400578:	e0803003 	add	r3, r0, r3
  40057c:	e0833001 	add	r3, r3, r1
  400580:	e59b2010 	ldr	r2, [fp, #16]
  400584:	e5832004 	str	r2, [r3, #4]
  400588:	e59f003c 	ldr	r0, [pc, #60]	; 4005cc <bsp_register_dev+0x1e8>
  40058c:	e51b2008 	ldr	r2, [fp, #-8]
  400590:	e3a01020 	mov	r1, #32
  400594:	e1a03002 	mov	r3, r2
  400598:	e1a03183 	lsl	r3, r3, #3
  40059c:	e0833002 	add	r3, r3, r2
  4005a0:	e1a03103 	lsl	r3, r3, #2
  4005a4:	e0803003 	add	r3, r0, r3
  4005a8:	e0833001 	add	r3, r3, r1
  4005ac:	e59b2014 	ldr	r2, [fp, #20]
  4005b0:	e5832000 	str	r2, [r3]
  4005b4:	e51b3008 	ldr	r3, [fp, #-8]
  4005b8:	e1a00003 	mov	r0, r3
  4005bc:	e24bd000 	sub	sp, fp, #0
  4005c0:	e49db004 	pop	{fp}		; (ldr fp, [sp], #4)
  4005c4:	e12fff1e 	bx	lr
  4005c8:	00401e40 	subeq	r1, r0, r0, asr #28
  4005cc:	00401d20 	subeq	r1, r0, r0, lsr #26

004005d0 <find_dev>:
  4005d0:	e92d4800 	push	{fp, lr}
  4005d4:	e28db004 	add	fp, sp, #4
  4005d8:	e24dd010 	sub	sp, sp, #16
  4005dc:	e50b0010 	str	r0, [fp, #-16]
  4005e0:	e51b0010 	ldr	r0, [fp, #-16]
  4005e4:	eb000267 	bl	400f88 <strlen>
  4005e8:	e1a03000 	mov	r3, r0
  4005ec:	e2833001 	add	r3, r3, #1
  4005f0:	e50b300c 	str	r3, [fp, #-12]
  4005f4:	e3a03000 	mov	r3, #0
  4005f8:	e50b3008 	str	r3, [fp, #-8]
  4005fc:	ea000019 	b	400668 <find_dev+0x98>
  400600:	e59f1088 	ldr	r1, [pc, #136]	; 400690 <find_dev+0xc0>
  400604:	e51b2008 	ldr	r2, [fp, #-8]
  400608:	e1a03002 	mov	r3, r2
  40060c:	e1a03183 	lsl	r3, r3, #3
  400610:	e0833002 	add	r3, r3, r2
  400614:	e1a03103 	lsl	r3, r3, #2
  400618:	e0813003 	add	r3, r1, r3
  40061c:	e5933000 	ldr	r3, [r3]
  400620:	e1a00003 	mov	r0, r3
  400624:	e51b1010 	ldr	r1, [fp, #-16]
  400628:	e51b200c 	ldr	r2, [fp, #-12]
  40062c:	eb000228 	bl	400ed4 <memcmp>
  400630:	e1a03000 	mov	r3, r0
  400634:	e3530000 	cmp	r3, #0
  400638:	1a000007 	bne	40065c <find_dev+0x8c>
  40063c:	e51b2008 	ldr	r2, [fp, #-8]
  400640:	e1a03002 	mov	r3, r2
  400644:	e1a03183 	lsl	r3, r3, #3
  400648:	e0833002 	add	r3, r3, r2
  40064c:	e1a03103 	lsl	r3, r3, #2
  400650:	e59f2038 	ldr	r2, [pc, #56]	; 400690 <find_dev+0xc0>
  400654:	e0833002 	add	r3, r3, r2
  400658:	ea000008 	b	400680 <find_dev+0xb0>
  40065c:	e51b3008 	ldr	r3, [fp, #-8]
  400660:	e2833001 	add	r3, r3, #1
  400664:	e50b3008 	str	r3, [fp, #-8]
  400668:	e59f3024 	ldr	r3, [pc, #36]	; 400694 <find_dev+0xc4>
  40066c:	e5933000 	ldr	r3, [r3]
  400670:	e51b2008 	ldr	r2, [fp, #-8]
  400674:	e1520003 	cmp	r2, r3
  400678:	3affffe0 	bcc	400600 <find_dev+0x30>
  40067c:	e3a03000 	mov	r3, #0
  400680:	e1a00003 	mov	r0, r3
  400684:	e24bd004 	sub	sp, fp, #4
  400688:	e8bd4800 	pop	{fp, lr}
  40068c:	e12fff1e 	bx	lr
  400690:	00401d20 	subeq	r1, r0, r0, lsr #26
  400694:	00401e40 	subeq	r1, r0, r0, asr #28

00400698 <get_dev>:
  400698:	e52db004 	push	{fp}		; (str fp, [sp, #-4]!)
  40069c:	e28db000 	add	fp, sp, #0
  4006a0:	e24dd00c 	sub	sp, sp, #12
  4006a4:	e50b0008 	str	r0, [fp, #-8]
  4006a8:	e59f3014 	ldr	r3, [pc, #20]	; 4006c4 <get_dev+0x2c>
  4006ac:	e51b2008 	ldr	r2, [fp, #-8]
  4006b0:	e7933182 	ldr	r3, [r3, r2, lsl #3]
  4006b4:	e1a00003 	mov	r0, r3
  4006b8:	e24bd000 	sub	sp, fp, #0
  4006bc:	e49db004 	pop	{fp}		; (ldr fp, [sp], #4)
  4006c0:	e12fff1e 	bx	lr
  4006c4:	00401e44 	subeq	r1, r0, r4, asr #28

004006c8 <get_flags>:
  4006c8:	e52db004 	push	{fp}		; (str fp, [sp, #-4]!)
  4006cc:	e28db000 	add	fp, sp, #0
  4006d0:	e24dd00c 	sub	sp, sp, #12
  4006d4:	e50b0008 	str	r0, [fp, #-8]
  4006d8:	e59f1024 	ldr	r1, [pc, #36]	; 400704 <get_flags+0x3c>
  4006dc:	e51b2008 	ldr	r2, [fp, #-8]
  4006e0:	e3a03004 	mov	r3, #4
  4006e4:	e1a02182 	lsl	r2, r2, #3
  4006e8:	e0812002 	add	r2, r1, r2
  4006ec:	e0823003 	add	r3, r2, r3
  4006f0:	e5933000 	ldr	r3, [r3]
  4006f4:	e1a00003 	mov	r0, r3
  4006f8:	e24bd000 	sub	sp, fp, #0
  4006fc:	e49db004 	pop	{fp}		; (ldr fp, [sp], #4)
  400700:	e12fff1e 	bx	lr
  400704:	00401e44 	subeq	r1, r0, r4, asr #28

00400708 <get_fd>:
  400708:	e92d4800 	push	{fp, lr}
  40070c:	e28db004 	add	fp, sp, #4
  400710:	e24dd010 	sub	sp, sp, #16
  400714:	e50b0010 	str	r0, [fp, #-16]
  400718:	e50b1014 	str	r1, [fp, #-20]
  40071c:	e3a03000 	mov	r3, #0
  400720:	e50b3008 	str	r3, [fp, #-8]
  400724:	ea000015 	b	400780 <get_fd+0x78>
  400728:	e59f3080 	ldr	r3, [pc, #128]	; 4007b0 <get_fd+0xa8>
  40072c:	e51b2008 	ldr	r2, [fp, #-8]
  400730:	e7933182 	ldr	r3, [r3, r2, lsl #3]
  400734:	e3530000 	cmp	r3, #0
  400738:	1a00000d 	bne	400774 <get_fd+0x6c>
  40073c:	e59f306c 	ldr	r3, [pc, #108]	; 4007b0 <get_fd+0xa8>
  400740:	e51b2008 	ldr	r2, [fp, #-8]
  400744:	e51b1010 	ldr	r1, [fp, #-16]
  400748:	e7831182 	str	r1, [r3, r2, lsl #3]
  40074c:	e59f105c 	ldr	r1, [pc, #92]	; 4007b0 <get_fd+0xa8>
  400750:	e51b2008 	ldr	r2, [fp, #-8]
  400754:	e3a03004 	mov	r3, #4
  400758:	e1a02182 	lsl	r2, r2, #3
  40075c:	e0812002 	add	r2, r1, r2
  400760:	e0823003 	add	r3, r2, r3
  400764:	e51b2014 	ldr	r2, [fp, #-20]
  400768:	e5832000 	str	r2, [r3]
  40076c:	e51b3008 	ldr	r3, [fp, #-8]
  400770:	ea00000a 	b	4007a0 <get_fd+0x98>
  400774:	e51b3008 	ldr	r3, [fp, #-8]
  400778:	e2833001 	add	r3, r3, #1
  40077c:	e50b3008 	str	r3, [fp, #-8]
  400780:	e51b3008 	ldr	r3, [fp, #-8]
  400784:	e3530007 	cmp	r3, #7
  400788:	daffffe6 	ble	400728 <get_fd+0x20>
  40078c:	eb0001cc 	bl	400ec4 <__errno>
  400790:	e1a03000 	mov	r3, r0
  400794:	e3a02017 	mov	r2, #23
  400798:	e5832000 	str	r2, [r3]
  40079c:	e3e03000 	mvn	r3, #0
  4007a0:	e1a00003 	mov	r0, r3
  4007a4:	e24bd004 	sub	sp, fp, #4
  4007a8:	e8bd4800 	pop	{fp, lr}
  4007ac:	e12fff1e 	bx	lr
  4007b0:	00401e44 	subeq	r1, r0, r4, asr #28

004007b4 <release_fd>:
  4007b4:	e52db004 	push	{fp}		; (str fp, [sp, #-4]!)
  4007b8:	e28db000 	add	fp, sp, #0
  4007bc:	e24dd00c 	sub	sp, sp, #12
  4007c0:	e50b0008 	str	r0, [fp, #-8]
  4007c4:	e51b3008 	ldr	r3, [fp, #-8]
  4007c8:	e3530002 	cmp	r3, #2
  4007cc:	9a00000b 	bls	400800 <release_fd+0x4c>
  4007d0:	e59f3034 	ldr	r3, [pc, #52]	; 40080c <release_fd+0x58>
  4007d4:	e51b2008 	ldr	r2, [fp, #-8]
  4007d8:	e3a01000 	mov	r1, #0
  4007dc:	e7831182 	str	r1, [r3, r2, lsl #3]
  4007e0:	e59f1024 	ldr	r1, [pc, #36]	; 40080c <release_fd+0x58>
  4007e4:	e51b2008 	ldr	r2, [fp, #-8]
  4007e8:	e3a03004 	mov	r3, #4
  4007ec:	e1a02182 	lsl	r2, r2, #3
  4007f0:	e0812002 	add	r2, r1, r2
  4007f4:	e0823003 	add	r3, r2, r3
  4007f8:	e3a02000 	mov	r2, #0
  4007fc:	e5832000 	str	r2, [r3]
  400800:	e24bd000 	sub	sp, fp, #0
  400804:	e49db004 	pop	{fp}		; (ldr fp, [sp], #4)
  400808:	e12fff1e 	bx	lr
  40080c:	00401e44 	subeq	r1, r0, r4, asr #28

00400810 <redirect_fd>:
  400810:	e92d4800 	push	{fp, lr}
  400814:	e28db004 	add	fp, sp, #4
  400818:	e24dd018 	sub	sp, sp, #24
  40081c:	e50b0010 	str	r0, [fp, #-16]
  400820:	e50b1014 	str	r1, [fp, #-20]
  400824:	e50b2018 	str	r2, [fp, #-24]
  400828:	e50b301c 	str	r3, [fp, #-28]
  40082c:	e51b0014 	ldr	r0, [fp, #-20]
  400830:	e51b1018 	ldr	r1, [fp, #-24]
  400834:	e51b201c 	ldr	r2, [fp, #-28]
  400838:	eb0001ea 	bl	400fe8 <open>
  40083c:	e50b0008 	str	r0, [fp, #-8]
  400840:	e51b3008 	ldr	r3, [fp, #-8]
  400844:	e3530000 	cmp	r3, #0
  400848:	ba000016 	blt	4008a8 <redirect_fd+0x98>
  40084c:	e59f3060 	ldr	r3, [pc, #96]	; 4008b4 <redirect_fd+0xa4>
  400850:	e51b2008 	ldr	r2, [fp, #-8]
  400854:	e7931182 	ldr	r1, [r3, r2, lsl #3]
  400858:	e59f3054 	ldr	r3, [pc, #84]	; 4008b4 <redirect_fd+0xa4>
  40085c:	e51b2010 	ldr	r2, [fp, #-16]
  400860:	e7831182 	str	r1, [r3, r2, lsl #3]
  400864:	e59f1048 	ldr	r1, [pc, #72]	; 4008b4 <redirect_fd+0xa4>
  400868:	e51b2008 	ldr	r2, [fp, #-8]
  40086c:	e3a03004 	mov	r3, #4
  400870:	e1a02182 	lsl	r2, r2, #3
  400874:	e0812002 	add	r2, r1, r2
  400878:	e0823003 	add	r3, r2, r3
  40087c:	e5932000 	ldr	r2, [r3]
  400880:	e59f002c 	ldr	r0, [pc, #44]	; 4008b4 <redirect_fd+0xa4>
  400884:	e51b1010 	ldr	r1, [fp, #-16]
  400888:	e3a03004 	mov	r3, #4
  40088c:	e1a01181 	lsl	r1, r1, #3
  400890:	e0801001 	add	r1, r0, r1
  400894:	e0813003 	add	r3, r1, r3
  400898:	e5832000 	str	r2, [r3]
  40089c:	e51b3008 	ldr	r3, [fp, #-8]
  4008a0:	e1a00003 	mov	r0, r3
  4008a4:	ebffffc2 	bl	4007b4 <release_fd>
  4008a8:	e24bd004 	sub	sp, fp, #4
  4008ac:	e8bd4800 	pop	{fp, lr}
  4008b0:	e12fff1e 	bx	lr
  4008b4:	00401e44 	subeq	r1, r0, r4, asr #28

004008b8 <excep_init>:
  4008b8:	e92d4800 	push	{fp, lr}
  4008bc:	e28db004 	add	fp, sp, #4
  4008c0:	e3a00006 	mov	r0, #6
  4008c4:	e59f100c 	ldr	r1, [pc, #12]	; 4008d8 <excep_init+0x20>
  4008c8:	eb000035 	bl	4009a4 <excep_set_handler>
  4008cc:	e24bd004 	sub	sp, fp, #4
  4008d0:	e8bd4800 	pop	{fp, lr}
  4008d4:	e12fff1e 	bx	lr
  4008d8:	00400a38 	subeq	r0, r0, r8, lsr sl

004008dc <algo>:
  4008dc:	e52db004 	push	{fp}		; (str fp, [sp, #-4]!)
  4008e0:	e28db000 	add	fp, sp, #0
  4008e4:	e59f300c 	ldr	r3, [pc, #12]	; 4008f8 <algo+0x1c>
  4008e8:	e1a00003 	mov	r0, r3
  4008ec:	e24bd000 	sub	sp, fp, #0
  4008f0:	e49db004 	pop	{fp}		; (ldr fp, [sp], #4)
  4008f4:	e12fff1e 	bx	lr
  4008f8:	004008dc 	ldrdeq	r0, [r0], #-140	; 0xffffff74

004008fc <excep_disable_ints>:
  4008fc:	e52db004 	push	{fp}		; (str fp, [sp, #-4]!)
  400900:	e28db000 	add	fp, sp, #0
  400904:	e3a03000 	mov	r3, #0
  400908:	e1a00003 	mov	r0, r3
  40090c:	e24bd000 	sub	sp, fp, #0
  400910:	e49db004 	pop	{fp}		; (ldr fp, [sp], #4)
  400914:	e12fff1e 	bx	lr

00400918 <excep_disable_irq>:
  400918:	e52db004 	push	{fp}		; (str fp, [sp, #-4]!)
  40091c:	e28db000 	add	fp, sp, #0
  400920:	e3a03000 	mov	r3, #0
  400924:	e1a00003 	mov	r0, r3
  400928:	e24bd000 	sub	sp, fp, #0
  40092c:	e49db004 	pop	{fp}		; (ldr fp, [sp], #4)
  400930:	e12fff1e 	bx	lr

00400934 <excep_disable_fiq>:
  400934:	e52db004 	push	{fp}		; (str fp, [sp, #-4]!)
  400938:	e28db000 	add	fp, sp, #0
  40093c:	e3a03000 	mov	r3, #0
  400940:	e1a00003 	mov	r0, r3
  400944:	e24bd000 	sub	sp, fp, #0
  400948:	e49db004 	pop	{fp}		; (ldr fp, [sp], #4)
  40094c:	e12fff1e 	bx	lr

00400950 <excep_restore_ints>:
  400950:	e52db004 	push	{fp}		; (str fp, [sp, #-4]!)
  400954:	e28db000 	add	fp, sp, #0
  400958:	e24dd00c 	sub	sp, sp, #12
  40095c:	e50b0008 	str	r0, [fp, #-8]
  400960:	e24bd000 	sub	sp, fp, #0
  400964:	e49db004 	pop	{fp}		; (ldr fp, [sp], #4)
  400968:	e12fff1e 	bx	lr

0040096c <excep_restore_irq>:
  40096c:	e52db004 	push	{fp}		; (str fp, [sp, #-4]!)
  400970:	e28db000 	add	fp, sp, #0
  400974:	e24dd00c 	sub	sp, sp, #12
  400978:	e50b0008 	str	r0, [fp, #-8]
  40097c:	e24bd000 	sub	sp, fp, #0
  400980:	e49db004 	pop	{fp}		; (ldr fp, [sp], #4)
  400984:	e12fff1e 	bx	lr

00400988 <excep_restore_fiq>:
  400988:	e52db004 	push	{fp}		; (str fp, [sp, #-4]!)
  40098c:	e28db000 	add	fp, sp, #0
  400990:	e24dd00c 	sub	sp, sp, #12
  400994:	e50b0008 	str	r0, [fp, #-8]
  400998:	e24bd000 	sub	sp, fp, #0
  40099c:	e49db004 	pop	{fp}		; (ldr fp, [sp], #4)
  4009a0:	e12fff1e 	bx	lr

004009a4 <excep_set_handler>:
  4009a4:	e52db004 	push	{fp}		; (str fp, [sp, #-4]!)
  4009a8:	e28db000 	add	fp, sp, #0
  4009ac:	e24dd00c 	sub	sp, sp, #12
  4009b0:	e1a03000 	mov	r3, r0
  4009b4:	e50b100c 	str	r1, [fp, #-12]
  4009b8:	e54b3005 	strb	r3, [fp, #-5]
  4009bc:	e55b3005 	ldrb	r3, [fp, #-5]
  4009c0:	e3530007 	cmp	r3, #7
  4009c4:	8a000003 	bhi	4009d8 <excep_set_handler+0x34>
  4009c8:	e55b2005 	ldrb	r2, [fp, #-5]
  4009cc:	e59f3010 	ldr	r3, [pc, #16]	; 4009e4 <excep_set_handler+0x40>
  4009d0:	e51b100c 	ldr	r1, [fp, #-12]
  4009d4:	e7831102 	str	r1, [r3, r2, lsl #2]
  4009d8:	e24bd000 	sub	sp, fp, #0
  4009dc:	e49db004 	pop	{fp}		; (ldr fp, [sp], #4)
  4009e0:	e12fff1e 	bx	lr
  4009e4:	00400020 	subeq	r0, r0, r0, lsr #32

004009e8 <excep_get_handler>:
  4009e8:	e52db004 	push	{fp}		; (str fp, [sp, #-4]!)
  4009ec:	e28db000 	add	fp, sp, #0
  4009f0:	e24dd014 	sub	sp, sp, #20
  4009f4:	e1a03000 	mov	r3, r0
  4009f8:	e54b300d 	strb	r3, [fp, #-13]
  4009fc:	e3a03000 	mov	r3, #0
  400a00:	e50b3008 	str	r3, [fp, #-8]
  400a04:	e55b300d 	ldrb	r3, [fp, #-13]
  400a08:	e3530007 	cmp	r3, #7
  400a0c:	8a000003 	bhi	400a20 <excep_get_handler+0x38>
  400a10:	e55b200d 	ldrb	r2, [fp, #-13]
  400a14:	e59f3018 	ldr	r3, [pc, #24]	; 400a34 <excep_get_handler+0x4c>
  400a18:	e7933102 	ldr	r3, [r3, r2, lsl #2]
  400a1c:	e50b3008 	str	r3, [fp, #-8]
  400a20:	e51b3008 	ldr	r3, [fp, #-8]
  400a24:	e1a00003 	mov	r0, r3
  400a28:	e24bd000 	sub	sp, fp, #0
  400a2c:	e49db004 	pop	{fp}		; (ldr fp, [sp], #4)
  400a30:	e12fff1e 	bx	lr
  400a34:	00400020 	subeq	r0, r0, r0, lsr #32

00400a38 <excep_nonnested_irq_handler>:
  400a38:	e52db004 	push	{fp}		; (str fp, [sp, #-4]!)
  400a3c:	e28db000 	add	fp, sp, #0
  400a40:	e24bd000 	sub	sp, fp, #0
  400a44:	e49db004 	pop	{fp}		; (ldr fp, [sp], #4)
  400a48:	e12fff1e 	bx	lr

00400a4c <itc_init>:
  400a4c:	e52db004 	push	{fp}		; (str fp, [sp, #-4]!)
  400a50:	e28db000 	add	fp, sp, #0
  400a54:	e24bd000 	sub	sp, fp, #0
  400a58:	e49db004 	pop	{fp}		; (ldr fp, [sp], #4)
  400a5c:	e12fff1e 	bx	lr

00400a60 <itc_disable_ints>:
  400a60:	e52db004 	push	{fp}		; (str fp, [sp, #-4]!)
  400a64:	e28db000 	add	fp, sp, #0
  400a68:	e24bd000 	sub	sp, fp, #0
  400a6c:	e49db004 	pop	{fp}		; (ldr fp, [sp], #4)
  400a70:	e12fff1e 	bx	lr

00400a74 <itc_restore_ints>:
  400a74:	e52db004 	push	{fp}		; (str fp, [sp, #-4]!)
  400a78:	e28db000 	add	fp, sp, #0
  400a7c:	e24bd000 	sub	sp, fp, #0
  400a80:	e49db004 	pop	{fp}		; (ldr fp, [sp], #4)
  400a84:	e12fff1e 	bx	lr

00400a88 <itc_set_handler>:
  400a88:	e52db004 	push	{fp}		; (str fp, [sp, #-4]!)
  400a8c:	e28db000 	add	fp, sp, #0
  400a90:	e24dd00c 	sub	sp, sp, #12
  400a94:	e1a03000 	mov	r3, r0
  400a98:	e50b100c 	str	r1, [fp, #-12]
  400a9c:	e54b3005 	strb	r3, [fp, #-5]
  400aa0:	e24bd000 	sub	sp, fp, #0
  400aa4:	e49db004 	pop	{fp}		; (ldr fp, [sp], #4)
  400aa8:	e12fff1e 	bx	lr

00400aac <itc_set_priority>:
  400aac:	e52db004 	push	{fp}		; (str fp, [sp, #-4]!)
  400ab0:	e28db000 	add	fp, sp, #0
  400ab4:	e24dd00c 	sub	sp, sp, #12
  400ab8:	e1a02000 	mov	r2, r0
  400abc:	e1a03001 	mov	r3, r1
  400ac0:	e54b2005 	strb	r2, [fp, #-5]
  400ac4:	e54b3006 	strb	r3, [fp, #-6]
  400ac8:	e24bd000 	sub	sp, fp, #0
  400acc:	e49db004 	pop	{fp}		; (ldr fp, [sp], #4)
  400ad0:	e12fff1e 	bx	lr

00400ad4 <itc_enable_interrupt>:
  400ad4:	e52db004 	push	{fp}		; (str fp, [sp, #-4]!)
  400ad8:	e28db000 	add	fp, sp, #0
  400adc:	e24dd00c 	sub	sp, sp, #12
  400ae0:	e1a03000 	mov	r3, r0
  400ae4:	e54b3005 	strb	r3, [fp, #-5]
  400ae8:	e24bd000 	sub	sp, fp, #0
  400aec:	e49db004 	pop	{fp}		; (ldr fp, [sp], #4)
  400af0:	e12fff1e 	bx	lr

00400af4 <itc_disable_interrupt>:
  400af4:	e52db004 	push	{fp}		; (str fp, [sp, #-4]!)
  400af8:	e28db000 	add	fp, sp, #0
  400afc:	e24dd00c 	sub	sp, sp, #12
  400b00:	e1a03000 	mov	r3, r0
  400b04:	e54b3005 	strb	r3, [fp, #-5]
  400b08:	e24bd000 	sub	sp, fp, #0
  400b0c:	e49db004 	pop	{fp}		; (ldr fp, [sp], #4)
  400b10:	e12fff1e 	bx	lr

00400b14 <itc_force_interrupt>:
  400b14:	e52db004 	push	{fp}		; (str fp, [sp, #-4]!)
  400b18:	e28db000 	add	fp, sp, #0
  400b1c:	e24dd00c 	sub	sp, sp, #12
  400b20:	e1a03000 	mov	r3, r0
  400b24:	e54b3005 	strb	r3, [fp, #-5]
  400b28:	e24bd000 	sub	sp, fp, #0
  400b2c:	e49db004 	pop	{fp}		; (ldr fp, [sp], #4)
  400b30:	e12fff1e 	bx	lr

00400b34 <itc_unforce_interrupt>:
  400b34:	e52db004 	push	{fp}		; (str fp, [sp, #-4]!)
  400b38:	e28db000 	add	fp, sp, #0
  400b3c:	e24dd00c 	sub	sp, sp, #12
  400b40:	e1a03000 	mov	r3, r0
  400b44:	e54b3005 	strb	r3, [fp, #-5]
  400b48:	e24bd000 	sub	sp, fp, #0
  400b4c:	e49db004 	pop	{fp}		; (ldr fp, [sp], #4)
  400b50:	e12fff1e 	bx	lr

00400b54 <itc_service_normal_interrupt>:
  400b54:	e52db004 	push	{fp}		; (str fp, [sp, #-4]!)
  400b58:	e28db000 	add	fp, sp, #0
  400b5c:	e24bd000 	sub	sp, fp, #0
  400b60:	e49db004 	pop	{fp}		; (ldr fp, [sp], #4)
  400b64:	e12fff1e 	bx	lr

00400b68 <itc_service_fast_interrupt>:
  400b68:	e52db004 	push	{fp}		; (str fp, [sp, #-4]!)
  400b6c:	e28db000 	add	fp, sp, #0
  400b70:	e24bd000 	sub	sp, fp, #0
  400b74:	e49db004 	pop	{fp}		; (ldr fp, [sp], #4)
  400b78:	e12fff1e 	bx	lr

00400b7c <uart_init>:
  400b7c:	e52db004 	push	{fp}		; (str fp, [sp, #-4]!)
  400b80:	e28db000 	add	fp, sp, #0
  400b84:	e24dd014 	sub	sp, sp, #20
  400b88:	e1a03000 	mov	r3, r0
  400b8c:	e50b100c 	str	r1, [fp, #-12]
  400b90:	e50b2010 	str	r2, [fp, #-16]
  400b94:	e54b3005 	strb	r3, [fp, #-5]
  400b98:	e3a03000 	mov	r3, #0
  400b9c:	e1a00003 	mov	r0, r3
  400ba0:	e24bd000 	sub	sp, fp, #0
  400ba4:	e49db004 	pop	{fp}		; (ldr fp, [sp], #4)
  400ba8:	e12fff1e 	bx	lr

00400bac <uart_send_byte>:
  400bac:	e52db004 	push	{fp}		; (str fp, [sp, #-4]!)
  400bb0:	e28db000 	add	fp, sp, #0
  400bb4:	e24dd00c 	sub	sp, sp, #12
  400bb8:	e1a02000 	mov	r2, r0
  400bbc:	e1a03001 	mov	r3, r1
  400bc0:	e54b2005 	strb	r2, [fp, #-5]
  400bc4:	e54b3006 	strb	r3, [fp, #-6]
  400bc8:	e24bd000 	sub	sp, fp, #0
  400bcc:	e49db004 	pop	{fp}		; (ldr fp, [sp], #4)
  400bd0:	e12fff1e 	bx	lr

00400bd4 <uart_receive_byte>:
  400bd4:	e52db004 	push	{fp}		; (str fp, [sp, #-4]!)
  400bd8:	e28db000 	add	fp, sp, #0
  400bdc:	e24dd00c 	sub	sp, sp, #12
  400be0:	e1a03000 	mov	r3, r0
  400be4:	e54b3005 	strb	r3, [fp, #-5]
  400be8:	e3a03000 	mov	r3, #0
  400bec:	e1a00003 	mov	r0, r3
  400bf0:	e24bd000 	sub	sp, fp, #0
  400bf4:	e49db004 	pop	{fp}		; (ldr fp, [sp], #4)
  400bf8:	e12fff1e 	bx	lr

00400bfc <uart_send>:
  400bfc:	e52db004 	push	{fp}		; (str fp, [sp, #-4]!)
  400c00:	e28db000 	add	fp, sp, #0
  400c04:	e24dd014 	sub	sp, sp, #20
  400c08:	e50b0008 	str	r0, [fp, #-8]
  400c0c:	e50b100c 	str	r1, [fp, #-12]
  400c10:	e50b2010 	str	r2, [fp, #-16]
  400c14:	e51b3010 	ldr	r3, [fp, #-16]
  400c18:	e1a00003 	mov	r0, r3
  400c1c:	e24bd000 	sub	sp, fp, #0
  400c20:	e49db004 	pop	{fp}		; (ldr fp, [sp], #4)
  400c24:	e12fff1e 	bx	lr

00400c28 <uart_receive>:
  400c28:	e52db004 	push	{fp}		; (str fp, [sp, #-4]!)
  400c2c:	e28db000 	add	fp, sp, #0
  400c30:	e24dd014 	sub	sp, sp, #20
  400c34:	e50b0008 	str	r0, [fp, #-8]
  400c38:	e50b100c 	str	r1, [fp, #-12]
  400c3c:	e50b2010 	str	r2, [fp, #-16]
  400c40:	e3a03000 	mov	r3, #0
  400c44:	e1a00003 	mov	r0, r3
  400c48:	e24bd000 	sub	sp, fp, #0
  400c4c:	e49db004 	pop	{fp}		; (ldr fp, [sp], #4)
  400c50:	e12fff1e 	bx	lr

00400c54 <uart_set_receive_callback>:
  400c54:	e52db004 	push	{fp}		; (str fp, [sp, #-4]!)
  400c58:	e28db000 	add	fp, sp, #0
  400c5c:	e24dd00c 	sub	sp, sp, #12
  400c60:	e1a03000 	mov	r3, r0
  400c64:	e50b100c 	str	r1, [fp, #-12]
  400c68:	e54b3005 	strb	r3, [fp, #-5]
  400c6c:	e3a03000 	mov	r3, #0
  400c70:	e1a00003 	mov	r0, r3
  400c74:	e24bd000 	sub	sp, fp, #0
  400c78:	e49db004 	pop	{fp}		; (ldr fp, [sp], #4)
  400c7c:	e12fff1e 	bx	lr

00400c80 <uart_set_send_callback>:
  400c80:	e52db004 	push	{fp}		; (str fp, [sp, #-4]!)
  400c84:	e28db000 	add	fp, sp, #0
  400c88:	e24dd00c 	sub	sp, sp, #12
  400c8c:	e1a03000 	mov	r3, r0
  400c90:	e50b100c 	str	r1, [fp, #-12]
  400c94:	e54b3005 	strb	r3, [fp, #-5]
  400c98:	e3a03000 	mov	r3, #0
  400c9c:	e1a00003 	mov	r0, r3
  400ca0:	e24bd000 	sub	sp, fp, #0
  400ca4:	e49db004 	pop	{fp}		; (ldr fp, [sp], #4)
  400ca8:	e12fff1e 	bx	lr

00400cac <uart_isr>:
  400cac:	e52db004 	push	{fp}		; (str fp, [sp, #-4]!)
  400cb0:	e28db000 	add	fp, sp, #0
  400cb4:	e24dd00c 	sub	sp, sp, #12
  400cb8:	e1a03000 	mov	r3, r0
  400cbc:	e54b3005 	strb	r3, [fp, #-5]
  400cc0:	e24bd000 	sub	sp, fp, #0
  400cc4:	e49db004 	pop	{fp}		; (ldr fp, [sp], #4)
  400cc8:	e12fff1e 	bx	lr

00400ccc <uart_1_isr>:
  400ccc:	e92d4800 	push	{fp, lr}
  400cd0:	e28db004 	add	fp, sp, #4
  400cd4:	e3a00000 	mov	r0, #0
  400cd8:	ebfffff3 	bl	400cac <uart_isr>
  400cdc:	e24bd004 	sub	sp, fp, #4
  400ce0:	e8bd4800 	pop	{fp, lr}
  400ce4:	e12fff1e 	bx	lr

00400ce8 <uart_2_isr>:
  400ce8:	e92d4800 	push	{fp, lr}
  400cec:	e28db004 	add	fp, sp, #4
  400cf0:	e3a00001 	mov	r0, #1
  400cf4:	ebffffec 	bl	400cac <uart_isr>
  400cf8:	e24bd004 	sub	sp, fp, #4
  400cfc:	e8bd4800 	pop	{fp, lr}
  400d00:	e12fff1e 	bx	lr

00400d04 <_sbrk>:
  400d04:	e92d4800 	push	{fp, lr}
  400d08:	e28db004 	add	fp, sp, #4
  400d0c:	e24dd010 	sub	sp, sp, #16
  400d10:	e50b0010 	str	r0, [fp, #-16]
  400d14:	e59f3080 	ldr	r3, [pc, #128]	; 400d9c <_sbrk+0x98>
  400d18:	e5933000 	ldr	r3, [r3]
  400d1c:	e50b3008 	str	r3, [fp, #-8]
  400d20:	ebffff4e 	bl	400a60 <itc_disable_ints>
  400d24:	e51b3010 	ldr	r3, [fp, #-16]
  400d28:	e2833003 	add	r3, r3, #3
  400d2c:	e3c33003 	bic	r3, r3, #3
  400d30:	e50b3010 	str	r3, [fp, #-16]
  400d34:	e59f3060 	ldr	r3, [pc, #96]	; 400d9c <_sbrk+0x98>
  400d38:	e5932000 	ldr	r2, [r3]
  400d3c:	e51b3010 	ldr	r3, [fp, #-16]
  400d40:	e0822003 	add	r2, r2, r3
  400d44:	e59f3054 	ldr	r3, [pc, #84]	; 400da0 <_sbrk+0x9c>
  400d48:	e1520003 	cmp	r2, r3
  400d4c:	9a000006 	bls	400d6c <_sbrk+0x68>
  400d50:	eb00005b 	bl	400ec4 <__errno>
  400d54:	e1a03000 	mov	r3, r0
  400d58:	e3a0200c 	mov	r2, #12
  400d5c:	e5832000 	str	r2, [r3]
  400d60:	e3e03000 	mvn	r3, #0
  400d64:	e50b3008 	str	r3, [fp, #-8]
  400d68:	ea000005 	b	400d84 <_sbrk+0x80>
  400d6c:	e59f3028 	ldr	r3, [pc, #40]	; 400d9c <_sbrk+0x98>
  400d70:	e5932000 	ldr	r2, [r3]
  400d74:	e51b3010 	ldr	r3, [fp, #-16]
  400d78:	e0822003 	add	r2, r2, r3
  400d7c:	e59f3018 	ldr	r3, [pc, #24]	; 400d9c <_sbrk+0x98>
  400d80:	e5832000 	str	r2, [r3]
  400d84:	ebffff3a 	bl	400a74 <itc_restore_ints>
  400d88:	e51b3008 	ldr	r3, [fp, #-8]
  400d8c:	e1a00003 	mov	r0, r3
  400d90:	e24bd004 	sub	sp, fp, #4
  400d94:	e8bd4800 	pop	{fp, lr}
  400d98:	e12fff1e 	bx	lr
  400d9c:	00401e84 	subeq	r1, r0, r4, lsl #29
  400da0:	004178e0 	subeq	r7, r1, r0, ror #17

00400da4 <_open>:
  400da4:	e52db004 	push	{fp}		; (str fp, [sp, #-4]!)
  400da8:	e28db000 	add	fp, sp, #0
  400dac:	e24dd014 	sub	sp, sp, #20
  400db0:	e50b0008 	str	r0, [fp, #-8]
  400db4:	e50b100c 	str	r1, [fp, #-12]
  400db8:	e50b2010 	str	r2, [fp, #-16]
  400dbc:	e3e03000 	mvn	r3, #0
  400dc0:	e1a00003 	mov	r0, r3
  400dc4:	e24bd000 	sub	sp, fp, #0
  400dc8:	e49db004 	pop	{fp}		; (ldr fp, [sp], #4)
  400dcc:	e12fff1e 	bx	lr

00400dd0 <_close>:
  400dd0:	e52db004 	push	{fp}		; (str fp, [sp, #-4]!)
  400dd4:	e28db000 	add	fp, sp, #0
  400dd8:	e24dd00c 	sub	sp, sp, #12
  400ddc:	e50b0008 	str	r0, [fp, #-8]
  400de0:	e3e03000 	mvn	r3, #0
  400de4:	e1a00003 	mov	r0, r3
  400de8:	e24bd000 	sub	sp, fp, #0
  400dec:	e49db004 	pop	{fp}		; (ldr fp, [sp], #4)
  400df0:	e12fff1e 	bx	lr

00400df4 <_read>:
  400df4:	e52db004 	push	{fp}		; (str fp, [sp, #-4]!)
  400df8:	e28db000 	add	fp, sp, #0
  400dfc:	e24dd014 	sub	sp, sp, #20
  400e00:	e50b0008 	str	r0, [fp, #-8]
  400e04:	e50b100c 	str	r1, [fp, #-12]
  400e08:	e50b2010 	str	r2, [fp, #-16]
  400e0c:	e3a03000 	mov	r3, #0
  400e10:	e1a00003 	mov	r0, r3
  400e14:	e24bd000 	sub	sp, fp, #0
  400e18:	e49db004 	pop	{fp}		; (ldr fp, [sp], #4)
  400e1c:	e12fff1e 	bx	lr

00400e20 <_write>:
  400e20:	e52db004 	push	{fp}		; (str fp, [sp, #-4]!)
  400e24:	e28db000 	add	fp, sp, #0
  400e28:	e24dd014 	sub	sp, sp, #20
  400e2c:	e50b0008 	str	r0, [fp, #-8]
  400e30:	e50b100c 	str	r1, [fp, #-12]
  400e34:	e50b2010 	str	r2, [fp, #-16]
  400e38:	e51b3010 	ldr	r3, [fp, #-16]
  400e3c:	e1a00003 	mov	r0, r3
  400e40:	e24bd000 	sub	sp, fp, #0
  400e44:	e49db004 	pop	{fp}		; (ldr fp, [sp], #4)
  400e48:	e12fff1e 	bx	lr

00400e4c <_lseek>:
  400e4c:	e52db004 	push	{fp}		; (str fp, [sp, #-4]!)
  400e50:	e28db000 	add	fp, sp, #0
  400e54:	e24dd014 	sub	sp, sp, #20
  400e58:	e50b0008 	str	r0, [fp, #-8]
  400e5c:	e50b100c 	str	r1, [fp, #-12]
  400e60:	e50b2010 	str	r2, [fp, #-16]
  400e64:	e3a03000 	mov	r3, #0
  400e68:	e1a00003 	mov	r0, r3
  400e6c:	e24bd000 	sub	sp, fp, #0
  400e70:	e49db004 	pop	{fp}		; (ldr fp, [sp], #4)
  400e74:	e12fff1e 	bx	lr

00400e78 <_fstat>:
  400e78:	e52db004 	push	{fp}		; (str fp, [sp, #-4]!)
  400e7c:	e28db000 	add	fp, sp, #0
  400e80:	e24dd00c 	sub	sp, sp, #12
  400e84:	e50b0008 	str	r0, [fp, #-8]
  400e88:	e50b100c 	str	r1, [fp, #-12]
  400e8c:	e3a03000 	mov	r3, #0
  400e90:	e1a00003 	mov	r0, r3
  400e94:	e24bd000 	sub	sp, fp, #0
  400e98:	e49db004 	pop	{fp}		; (ldr fp, [sp], #4)
  400e9c:	e12fff1e 	bx	lr

00400ea0 <_isatty>:
  400ea0:	e52db004 	push	{fp}		; (str fp, [sp, #-4]!)
  400ea4:	e28db000 	add	fp, sp, #0
  400ea8:	e24dd00c 	sub	sp, sp, #12
  400eac:	e50b0008 	str	r0, [fp, #-8]
  400eb0:	e3a03001 	mov	r3, #1
  400eb4:	e1a00003 	mov	r0, r3
  400eb8:	e24bd000 	sub	sp, fp, #0
  400ebc:	e49db004 	pop	{fp}		; (ldr fp, [sp], #4)
  400ec0:	e12fff1e 	bx	lr

Disassembly of section .text.__errno:

00400ec4 <__errno>:
  400ec4:	e59f3004 	ldr	r3, [pc, #4]	; 400ed0 <__errno+0xc>
  400ec8:	e5930000 	ldr	r0, [r3]
  400ecc:	e12fff1e 	bx	lr
  400ed0:	004022b0 	strheq	r2, [r0], #-32	; 0xffffffe0

Disassembly of section .text.memcmp:

00400ed4 <memcmp>:
  400ed4:	e3520003 	cmp	r2, #3
  400ed8:	e92d0030 	push	{r4, r5}
  400edc:	9a000011 	bls	400f28 <memcmp+0x54>
  400ee0:	e1803001 	orr	r3, r0, r1
  400ee4:	e3130003 	tst	r3, #3
  400ee8:	1a000010 	bne	400f30 <memcmp+0x5c>
  400eec:	e1a0c001 	mov	ip, r1
  400ef0:	e1a03000 	mov	r3, r0
  400ef4:	e59c4000 	ldr	r4, [ip]
  400ef8:	e5935000 	ldr	r5, [r3]
  400efc:	e1550004 	cmp	r5, r4
  400f00:	e1a0100c 	mov	r1, ip
  400f04:	e1a00003 	mov	r0, r3
  400f08:	e28cc004 	add	ip, ip, #4
  400f0c:	e2833004 	add	r3, r3, #4
  400f10:	1a000004 	bne	400f28 <memcmp+0x54>
  400f14:	e2422004 	sub	r2, r2, #4
  400f18:	e3520003 	cmp	r2, #3
  400f1c:	e1a00003 	mov	r0, r3
  400f20:	e1a0100c 	mov	r1, ip
  400f24:	8afffff2 	bhi	400ef4 <memcmp+0x20>
  400f28:	e3520000 	cmp	r2, #0
  400f2c:	0a000013 	beq	400f80 <memcmp+0xac>
  400f30:	e5d04000 	ldrb	r4, [r0]
  400f34:	e5d1c000 	ldrb	ip, [r1]
  400f38:	e154000c 	cmp	r4, ip
  400f3c:	02422001 	subeq	r2, r2, #1
  400f40:	03a03000 	moveq	r3, #0
  400f44:	0a000005 	beq	400f60 <memcmp+0x8c>
  400f48:	ea000009 	b	400f74 <memcmp+0xa0>
  400f4c:	e5f04001 	ldrb	r4, [r0, #1]!
  400f50:	e5f1c001 	ldrb	ip, [r1, #1]!
  400f54:	e154000c 	cmp	r4, ip
  400f58:	e2833001 	add	r3, r3, #1
  400f5c:	1a000004 	bne	400f74 <memcmp+0xa0>
  400f60:	e1530002 	cmp	r3, r2
  400f64:	1afffff8 	bne	400f4c <memcmp+0x78>
  400f68:	e3a00000 	mov	r0, #0
  400f6c:	e8bd0030 	pop	{r4, r5}
  400f70:	e12fff1e 	bx	lr
  400f74:	e06c0004 	rsb	r0, ip, r4
  400f78:	e8bd0030 	pop	{r4, r5}
  400f7c:	e12fff1e 	bx	lr
  400f80:	e1a00002 	mov	r0, r2
  400f84:	eafffff8 	b	400f6c <memcmp+0x98>

Disassembly of section .text.strlen:

00400f88 <strlen>:
  400f88:	e3c01003 	bic	r1, r0, #3
  400f8c:	e2100003 	ands	r0, r0, #3
  400f90:	e2600000 	rsb	r0, r0, #0
  400f94:	e4913004 	ldr	r3, [r1], #4
  400f98:	e280c004 	add	ip, r0, #4
  400f9c:	e1a0c18c 	lsl	ip, ip, #3
  400fa0:	e3e02000 	mvn	r2, #0
  400fa4:	11833c32 	orrne	r3, r3, r2, lsr ip
  400fa8:	e3a0c001 	mov	ip, #1
  400fac:	e18cc40c 	orr	ip, ip, ip, lsl #8
  400fb0:	e18cc80c 	orr	ip, ip, ip, lsl #16
  400fb4:	e043200c 	sub	r2, r3, ip
  400fb8:	e1c22003 	bic	r2, r2, r3
  400fbc:	e012238c 	ands	r2, r2, ip, lsl #7
  400fc0:	04913004 	ldreq	r3, [r1], #4
  400fc4:	02800004 	addeq	r0, r0, #4
  400fc8:	0afffff9 	beq	400fb4 <strlen+0x2c>
  400fcc:	e31300ff 	tst	r3, #255	; 0xff
  400fd0:	12800001 	addne	r0, r0, #1
  400fd4:	13130cff 	tstne	r3, #65280	; 0xff00
  400fd8:	12800001 	addne	r0, r0, #1
  400fdc:	131308ff 	tstne	r3, #16711680	; 0xff0000
  400fe0:	12800001 	addne	r0, r0, #1
  400fe4:	e12fff1e 	bx	lr

Disassembly of section .text.open:

00400fe8 <open>:
  400fe8:	e92d000e 	push	{r1, r2, r3}
  400fec:	e52de004 	push	{lr}		; (str lr, [sp, #-4]!)
  400ff0:	e59f302c 	ldr	r3, [pc, #44]	; 401024 <open+0x3c>
  400ff4:	e24dd008 	sub	sp, sp, #8
  400ff8:	e28d200c 	add	r2, sp, #12
  400ffc:	e1a01000 	mov	r1, r0
  401000:	e28dc010 	add	ip, sp, #16
  401004:	e5930000 	ldr	r0, [r3]
  401008:	e892000c 	ldm	r2, {r2, r3}
  40100c:	e58dc004 	str	ip, [sp, #4]
  401010:	eb000004 	bl	401028 <_open_r>
  401014:	e28dd008 	add	sp, sp, #8
  401018:	e49de004 	pop	{lr}		; (ldr lr, [sp], #4)
  40101c:	e28dd00c 	add	sp, sp, #12
  401020:	e12fff1e 	bx	lr
  401024:	004022b0 	strheq	r2, [r0], #-32	; 0xffffffe0

Disassembly of section .text._open_r:

00401028 <_open_r>:
  401028:	e92d4038 	push	{r3, r4, r5, lr}
  40102c:	e59f4034 	ldr	r4, [pc, #52]	; 401068 <_open_r+0x40>
  401030:	e3a0c000 	mov	ip, #0
  401034:	e1a05000 	mov	r5, r0
  401038:	e1a00001 	mov	r0, r1
  40103c:	e1a01002 	mov	r1, r2
  401040:	e1a02003 	mov	r2, r3
  401044:	e584c000 	str	ip, [r4]
  401048:	ebffff55 	bl	400da4 <_open>
  40104c:	e3700001 	cmn	r0, #1
  401050:	1a000002 	bne	401060 <_open_r+0x38>
  401054:	e5943000 	ldr	r3, [r4]
  401058:	e3530000 	cmp	r3, #0
  40105c:	15853000 	strne	r3, [r5]
  401060:	e8bd4038 	pop	{r3, r4, r5, lr}
  401064:	e12fff1e 	bx	lr
  401068:	00402b54 	subeq	r2, r0, r4, asr fp

Disassembly of section .text.cleanup_glue:

0040106c <cleanup_glue>:
  40106c:	e92d4038 	push	{r3, r4, r5, lr}
  401070:	e1a04001 	mov	r4, r1
  401074:	e5911000 	ldr	r1, [r1]
  401078:	e3510000 	cmp	r1, #0
  40107c:	e1a05000 	mov	r5, r0
  401080:	1bfffff9 	blne	40106c <cleanup_glue>
  401084:	e1a00005 	mov	r0, r5
  401088:	e1a01004 	mov	r1, r4
  40108c:	eb000083 	bl	4012a0 <_free_r>
  401090:	e8bd4038 	pop	{r3, r4, r5, lr}
  401094:	e12fff1e 	bx	lr

Disassembly of section .text._reclaim_reent:

00401098 <_reclaim_reent>:
  401098:	e59f30fc 	ldr	r3, [pc, #252]	; 40119c <_reclaim_reent+0x104>
  40109c:	e5933000 	ldr	r3, [r3]
  4010a0:	e1500003 	cmp	r0, r3
  4010a4:	e92d4070 	push	{r4, r5, r6, lr}
  4010a8:	e1a05000 	mov	r5, r0
  4010ac:	0a00002e 	beq	40116c <_reclaim_reent+0xd4>
  4010b0:	e590204c 	ldr	r2, [r0, #76]	; 0x4c
  4010b4:	e3520000 	cmp	r2, #0
  4010b8:	0a000013 	beq	40110c <_reclaim_reent+0x74>
  4010bc:	e3a03000 	mov	r3, #0
  4010c0:	e1a06003 	mov	r6, r3
  4010c4:	e7921103 	ldr	r1, [r2, r3, lsl #2]
  4010c8:	e3510000 	cmp	r1, #0
  4010cc:	1a000001 	bne	4010d8 <_reclaim_reent+0x40>
  4010d0:	ea000006 	b	4010f0 <_reclaim_reent+0x58>
  4010d4:	e1a01004 	mov	r1, r4
  4010d8:	e5914000 	ldr	r4, [r1]
  4010dc:	e1a00005 	mov	r0, r5
  4010e0:	eb00006e 	bl	4012a0 <_free_r>
  4010e4:	e3540000 	cmp	r4, #0
  4010e8:	1afffff9 	bne	4010d4 <_reclaim_reent+0x3c>
  4010ec:	e595204c 	ldr	r2, [r5, #76]	; 0x4c
  4010f0:	e2866001 	add	r6, r6, #1
  4010f4:	e3560020 	cmp	r6, #32
  4010f8:	e1a03006 	mov	r3, r6
  4010fc:	1afffff0 	bne	4010c4 <_reclaim_reent+0x2c>
  401100:	e1a01002 	mov	r1, r2
  401104:	e1a00005 	mov	r0, r5
  401108:	eb000064 	bl	4012a0 <_free_r>
  40110c:	e5951040 	ldr	r1, [r5, #64]	; 0x40
  401110:	e3510000 	cmp	r1, #0
  401114:	11a00005 	movne	r0, r5
  401118:	1b000060 	blne	4012a0 <_free_r>
  40111c:	e5951148 	ldr	r1, [r5, #328]	; 0x148
  401120:	e3510000 	cmp	r1, #0
  401124:	0a000009 	beq	401150 <_reclaim_reent+0xb8>
  401128:	e2856f53 	add	r6, r5, #332	; 0x14c
  40112c:	e1510006 	cmp	r1, r6
  401130:	1a000001 	bne	40113c <_reclaim_reent+0xa4>
  401134:	ea000005 	b	401150 <_reclaim_reent+0xb8>
  401138:	e1a01004 	mov	r1, r4
  40113c:	e5914000 	ldr	r4, [r1]
  401140:	e1a00005 	mov	r0, r5
  401144:	eb000055 	bl	4012a0 <_free_r>
  401148:	e1560004 	cmp	r6, r4
  40114c:	1afffff9 	bne	401138 <_reclaim_reent+0xa0>
  401150:	e5951054 	ldr	r1, [r5, #84]	; 0x54
  401154:	e3510000 	cmp	r1, #0
  401158:	11a00005 	movne	r0, r5
  40115c:	1b00004f 	blne	4012a0 <_free_r>
  401160:	e5953038 	ldr	r3, [r5, #56]	; 0x38
  401164:	e3530000 	cmp	r3, #0
  401168:	1a000001 	bne	401174 <_reclaim_reent+0xdc>
  40116c:	e8bd4070 	pop	{r4, r5, r6, lr}
  401170:	e12fff1e 	bx	lr
  401174:	e1a00005 	mov	r0, r5
  401178:	e595c03c 	ldr	ip, [r5, #60]	; 0x3c
  40117c:	e1a0e00f 	mov	lr, pc
  401180:	e12fff1c 	bx	ip
  401184:	e59512e0 	ldr	r1, [r5, #736]	; 0x2e0
  401188:	e3510000 	cmp	r1, #0
  40118c:	0afffff6 	beq	40116c <_reclaim_reent+0xd4>
  401190:	e1a00005 	mov	r0, r5
  401194:	e8bd4070 	pop	{r4, r5, r6, lr}
  401198:	eaffffb3 	b	40106c <cleanup_glue>
  40119c:	004022b0 	strheq	r2, [r0], #-32	; 0xffffffe0

Disassembly of section .text._malloc_trim_r:

004011a0 <_malloc_trim_r>:
  4011a0:	e92d40f8 	push	{r3, r4, r5, r6, r7, lr}
  4011a4:	e59f50e8 	ldr	r5, [pc, #232]	; 401294 <_malloc_trim_r+0xf4>
  4011a8:	e1a07001 	mov	r7, r1
  4011ac:	e1a04000 	mov	r4, r0
  4011b0:	eb0002a8 	bl	401c58 <__malloc_lock>
  4011b4:	e5953008 	ldr	r3, [r5, #8]
  4011b8:	e5936004 	ldr	r6, [r3, #4]
  4011bc:	e3c66003 	bic	r6, r6, #3
  4011c0:	e0677006 	rsb	r7, r7, r6
  4011c4:	e2877efe 	add	r7, r7, #4064	; 0xfe0
  4011c8:	e287700f 	add	r7, r7, #15
  4011cc:	e1a07627 	lsr	r7, r7, #12
  4011d0:	e2477001 	sub	r7, r7, #1
  4011d4:	e1a07607 	lsl	r7, r7, #12
  4011d8:	e3570a01 	cmp	r7, #4096	; 0x1000
  4011dc:	ba000006 	blt	4011fc <_malloc_trim_r+0x5c>
  4011e0:	e1a00004 	mov	r0, r4
  4011e4:	e3a01000 	mov	r1, #0
  4011e8:	eb00029c 	bl	401c60 <_sbrk_r>
  4011ec:	e5953008 	ldr	r3, [r5, #8]
  4011f0:	e0833006 	add	r3, r3, r6
  4011f4:	e1500003 	cmp	r0, r3
  4011f8:	0a000004 	beq	401210 <_malloc_trim_r+0x70>
  4011fc:	e1a00004 	mov	r0, r4
  401200:	eb000295 	bl	401c5c <__malloc_unlock>
  401204:	e3a00000 	mov	r0, #0
  401208:	e8bd40f8 	pop	{r3, r4, r5, r6, r7, lr}
  40120c:	e12fff1e 	bx	lr
  401210:	e1a00004 	mov	r0, r4
  401214:	e2671000 	rsb	r1, r7, #0
  401218:	eb000290 	bl	401c60 <_sbrk_r>
  40121c:	e3700001 	cmn	r0, #1
  401220:	0a00000c 	beq	401258 <_malloc_trim_r+0xb8>
  401224:	e59f306c 	ldr	r3, [pc, #108]	; 401298 <_malloc_trim_r+0xf8>
  401228:	e5951008 	ldr	r1, [r5, #8]
  40122c:	e5932000 	ldr	r2, [r3]
  401230:	e0676006 	rsb	r6, r7, r6
  401234:	e3866001 	orr	r6, r6, #1
  401238:	e1a00004 	mov	r0, r4
  40123c:	e0677002 	rsb	r7, r7, r2
  401240:	e5816004 	str	r6, [r1, #4]
  401244:	e5837000 	str	r7, [r3]
  401248:	eb000283 	bl	401c5c <__malloc_unlock>
  40124c:	e3a00001 	mov	r0, #1
  401250:	e8bd40f8 	pop	{r3, r4, r5, r6, r7, lr}
  401254:	e12fff1e 	bx	lr
  401258:	e1a00004 	mov	r0, r4
  40125c:	e3a01000 	mov	r1, #0
  401260:	eb00027e 	bl	401c60 <_sbrk_r>
  401264:	e5953008 	ldr	r3, [r5, #8]
  401268:	e0632000 	rsb	r2, r3, r0
  40126c:	e352000f 	cmp	r2, #15
  401270:	daffffe1 	ble	4011fc <_malloc_trim_r+0x5c>
  401274:	e59f1020 	ldr	r1, [pc, #32]	; 40129c <_malloc_trim_r+0xfc>
  401278:	e591c000 	ldr	ip, [r1]
  40127c:	e59f1014 	ldr	r1, [pc, #20]	; 401298 <_malloc_trim_r+0xf8>
  401280:	e3822001 	orr	r2, r2, #1
  401284:	e06c0000 	rsb	r0, ip, r0
  401288:	e5832004 	str	r2, [r3, #4]
  40128c:	e5810000 	str	r0, [r1]
  401290:	eaffffd9 	b	4011fc <_malloc_trim_r+0x5c>
  401294:	004022b4 	strheq	r2, [r0], #-36	; 0xffffffdc
  401298:	00402b64 	subeq	r2, r0, r4, ror #22
  40129c:	004026c0 	subeq	r2, r0, r0, asr #13

Disassembly of section .text._free_r:

004012a0 <_free_r>:
  4012a0:	e92d40f8 	push	{r3, r4, r5, r6, r7, lr}
  4012a4:	e2514000 	subs	r4, r1, #0
  4012a8:	e1a06000 	mov	r6, r0
  4012ac:	0a000046 	beq	4013cc <_free_r+0x12c>
  4012b0:	eb000268 	bl	401c58 <__malloc_lock>
  4012b4:	e514e004 	ldr	lr, [r4, #-4]
  4012b8:	e59f1238 	ldr	r1, [pc, #568]	; 4014f8 <_free_r+0x258>
  4012bc:	e3ce3001 	bic	r3, lr, #1
  4012c0:	e244c008 	sub	ip, r4, #8
  4012c4:	e08c2003 	add	r2, ip, r3
  4012c8:	e5910008 	ldr	r0, [r1, #8]
  4012cc:	e5925004 	ldr	r5, [r2, #4]
  4012d0:	e1500002 	cmp	r0, r2
  4012d4:	e3c55003 	bic	r5, r5, #3
  4012d8:	0a00004a 	beq	401408 <_free_r+0x168>
  4012dc:	e21ee001 	ands	lr, lr, #1
  4012e0:	e5825004 	str	r5, [r2, #4]
  4012e4:	13a0e000 	movne	lr, #0
  4012e8:	1a000009 	bne	401314 <_free_r+0x74>
  4012ec:	e5144008 	ldr	r4, [r4, #-8]
  4012f0:	e064c00c 	rsb	ip, r4, ip
  4012f4:	e59c0008 	ldr	r0, [ip, #8]
  4012f8:	e2817008 	add	r7, r1, #8
  4012fc:	e1500007 	cmp	r0, r7
  401300:	e0833004 	add	r3, r3, r4
  401304:	159c400c 	ldrne	r4, [ip, #12]
  401308:	1580400c 	strne	r4, [r0, #12]
  40130c:	15840008 	strne	r0, [r4, #8]
  401310:	03a0e001 	moveq	lr, #1
  401314:	e0820005 	add	r0, r2, r5
  401318:	e5900004 	ldr	r0, [r0, #4]
  40131c:	e3100001 	tst	r0, #1
  401320:	1a000009 	bne	40134c <_free_r+0xac>
  401324:	e35e0000 	cmp	lr, #0
  401328:	e5920008 	ldr	r0, [r2, #8]
  40132c:	e0833005 	add	r3, r3, r5
  401330:	1a000002 	bne	401340 <_free_r+0xa0>
  401334:	e59f41c0 	ldr	r4, [pc, #448]	; 4014fc <_free_r+0x25c>
  401338:	e1500004 	cmp	r0, r4
  40133c:	0a000047 	beq	401460 <_free_r+0x1c0>
  401340:	e592200c 	ldr	r2, [r2, #12]
  401344:	e580200c 	str	r2, [r0, #12]
  401348:	e5820008 	str	r0, [r2, #8]
  40134c:	e3832001 	orr	r2, r3, #1
  401350:	e35e0000 	cmp	lr, #0
  401354:	e58c2004 	str	r2, [ip, #4]
  401358:	e78c3003 	str	r3, [ip, r3]
  40135c:	1a000018 	bne	4013c4 <_free_r+0x124>
  401360:	e3530c02 	cmp	r3, #512	; 0x200
  401364:	3a00001a 	bcc	4013d4 <_free_r+0x134>
  401368:	e1a024a3 	lsr	r2, r3, #9
  40136c:	e3520004 	cmp	r2, #4
  401370:	8a000042 	bhi	401480 <_free_r+0x1e0>
  401374:	e1a0e323 	lsr	lr, r3, #6
  401378:	e28ee038 	add	lr, lr, #56	; 0x38
  40137c:	e1a0008e 	lsl	r0, lr, #1
  401380:	e0810100 	add	r0, r1, r0, lsl #2
  401384:	e5902008 	ldr	r2, [r0, #8]
  401388:	e1520000 	cmp	r2, r0
  40138c:	e59f1164 	ldr	r1, [pc, #356]	; 4014f8 <_free_r+0x258>
  401390:	0a000044 	beq	4014a8 <_free_r+0x208>
  401394:	e5921004 	ldr	r1, [r2, #4]
  401398:	e3c11003 	bic	r1, r1, #3
  40139c:	e1530001 	cmp	r3, r1
  4013a0:	2a000002 	bcs	4013b0 <_free_r+0x110>
  4013a4:	e5922008 	ldr	r2, [r2, #8]
  4013a8:	e1500002 	cmp	r0, r2
  4013ac:	1afffff8 	bne	401394 <_free_r+0xf4>
  4013b0:	e592300c 	ldr	r3, [r2, #12]
  4013b4:	e58c300c 	str	r3, [ip, #12]
  4013b8:	e58c2008 	str	r2, [ip, #8]
  4013bc:	e583c008 	str	ip, [r3, #8]
  4013c0:	e582c00c 	str	ip, [r2, #12]
  4013c4:	e1a00006 	mov	r0, r6
  4013c8:	eb000223 	bl	401c5c <__malloc_unlock>
  4013cc:	e8bd40f8 	pop	{r3, r4, r5, r6, r7, lr}
  4013d0:	e12fff1e 	bx	lr
  4013d4:	e5912004 	ldr	r2, [r1, #4]
  4013d8:	e1a031a3 	lsr	r3, r3, #3
  4013dc:	e1a00143 	asr	r0, r3, #2
  4013e0:	e3a0e001 	mov	lr, #1
  4013e4:	e182001e 	orr	r0, r2, lr, lsl r0
  4013e8:	e0813183 	add	r3, r1, r3, lsl #3
  4013ec:	e5932008 	ldr	r2, [r3, #8]
  4013f0:	e5810004 	str	r0, [r1, #4]
  4013f4:	e58c2008 	str	r2, [ip, #8]
  4013f8:	e58c300c 	str	r3, [ip, #12]
  4013fc:	e583c008 	str	ip, [r3, #8]
  401400:	e582c00c 	str	ip, [r2, #12]
  401404:	eaffffee 	b	4013c4 <_free_r+0x124>
  401408:	e31e0001 	tst	lr, #1
  40140c:	e0853003 	add	r3, r5, r3
  401410:	1a000006 	bne	401430 <_free_r+0x190>
  401414:	e5142008 	ldr	r2, [r4, #-8]
  401418:	e062c00c 	rsb	ip, r2, ip
  40141c:	e59c000c 	ldr	r0, [ip, #12]
  401420:	e59ce008 	ldr	lr, [ip, #8]
  401424:	e58e000c 	str	r0, [lr, #12]
  401428:	e580e008 	str	lr, [r0, #8]
  40142c:	e0833002 	add	r3, r3, r2
  401430:	e59f20c8 	ldr	r2, [pc, #200]	; 401500 <_free_r+0x260>
  401434:	e5920000 	ldr	r0, [r2]
  401438:	e3832001 	orr	r2, r3, #1
  40143c:	e1530000 	cmp	r3, r0
  401440:	e58c2004 	str	r2, [ip, #4]
  401444:	e581c008 	str	ip, [r1, #8]
  401448:	3affffdd 	bcc	4013c4 <_free_r+0x124>
  40144c:	e59f30b0 	ldr	r3, [pc, #176]	; 401504 <_free_r+0x264>
  401450:	e1a00006 	mov	r0, r6
  401454:	e5931000 	ldr	r1, [r3]
  401458:	ebffff50 	bl	4011a0 <_malloc_trim_r>
  40145c:	eaffffd8 	b	4013c4 <_free_r+0x124>
  401460:	e3832001 	orr	r2, r3, #1
  401464:	e581c014 	str	ip, [r1, #20]
  401468:	e581c010 	str	ip, [r1, #16]
  40146c:	e58c000c 	str	r0, [ip, #12]
  401470:	e58c0008 	str	r0, [ip, #8]
  401474:	e58c2004 	str	r2, [ip, #4]
  401478:	e78c3003 	str	r3, [ip, r3]
  40147c:	eaffffd0 	b	4013c4 <_free_r+0x124>
  401480:	e3520014 	cmp	r2, #20
  401484:	9282e05b 	addls	lr, r2, #91	; 0x5b
  401488:	91a0008e 	lslls	r0, lr, #1
  40148c:	9affffbb 	bls	401380 <_free_r+0xe0>
  401490:	e3520054 	cmp	r2, #84	; 0x54
  401494:	8a00000a 	bhi	4014c4 <_free_r+0x224>
  401498:	e1a0e623 	lsr	lr, r3, #12
  40149c:	e28ee06e 	add	lr, lr, #110	; 0x6e
  4014a0:	e1a0008e 	lsl	r0, lr, #1
  4014a4:	eaffffb5 	b	401380 <_free_r+0xe0>
  4014a8:	e5913004 	ldr	r3, [r1, #4]
  4014ac:	e1a0e14e 	asr	lr, lr, #2
  4014b0:	e3a00001 	mov	r0, #1
  4014b4:	e1830e10 	orr	r0, r3, r0, lsl lr
  4014b8:	e1a03002 	mov	r3, r2
  4014bc:	e5810004 	str	r0, [r1, #4]
  4014c0:	eaffffbb 	b	4013b4 <_free_r+0x114>
  4014c4:	e3520f55 	cmp	r2, #340	; 0x154
  4014c8:	91a0e7a3 	lsrls	lr, r3, #15
  4014cc:	928ee077 	addls	lr, lr, #119	; 0x77
  4014d0:	91a0008e 	lslls	r0, lr, #1
  4014d4:	9affffa9 	bls	401380 <_free_r+0xe0>
  4014d8:	e59f0028 	ldr	r0, [pc, #40]	; 401508 <_free_r+0x268>
  4014dc:	e1520000 	cmp	r2, r0
  4014e0:	91a0e923 	lsrls	lr, r3, #18
  4014e4:	928ee07c 	addls	lr, lr, #124	; 0x7c
  4014e8:	91a0008e 	lslls	r0, lr, #1
  4014ec:	83a000fc 	movhi	r0, #252	; 0xfc
  4014f0:	83a0e07e 	movhi	lr, #126	; 0x7e
  4014f4:	eaffffa1 	b	401380 <_free_r+0xe0>
  4014f8:	004022b4 	strheq	r2, [r0], #-36	; 0xffffffdc
  4014fc:	004022bc 	strheq	r2, [r0], #-44	; 0xffffffd4
  401500:	004026bc 	strheq	r2, [r0], #-108	; 0xffffff94
  401504:	00402b60 	subeq	r2, r0, r0, ror #22
  401508:	00000554 	andeq	r0, r0, r4, asr r5

Disassembly of section .text._malloc_r:

0040150c <_malloc_r>:
  40150c:	e92d4ff0 	push	{r4, r5, r6, r7, r8, r9, sl, fp, lr}
  401510:	e281500b 	add	r5, r1, #11
  401514:	e3550016 	cmp	r5, #22
  401518:	83c55007 	bichi	r5, r5, #7
  40151c:	81a03fa5 	lsrhi	r3, r5, #31
  401520:	93a03000 	movls	r3, #0
  401524:	93a05010 	movls	r5, #16
  401528:	e1550001 	cmp	r5, r1
  40152c:	21a01003 	movcs	r1, r3
  401530:	33831001 	orrcc	r1, r3, #1
  401534:	e3510000 	cmp	r1, #0
  401538:	13a0300c 	movne	r3, #12
  40153c:	e24dd00c 	sub	sp, sp, #12
  401540:	e1a06000 	mov	r6, r0
  401544:	15803000 	strne	r3, [r0]
  401548:	13a04000 	movne	r4, #0
  40154c:	1a000015 	bne	4015a8 <_malloc_r+0x9c>
  401550:	eb0001c0 	bl	401c58 <__malloc_lock>
  401554:	e3550f7e 	cmp	r5, #504	; 0x1f8
  401558:	2a000016 	bcs	4015b8 <_malloc_r+0xac>
  40155c:	e59f76d8 	ldr	r7, [pc, #1752]	; 401c3c <_malloc_r+0x730>
  401560:	e1a0e1a5 	lsr	lr, r5, #3
  401564:	e087318e 	add	r3, r7, lr, lsl #3
  401568:	e593400c 	ldr	r4, [r3, #12]
  40156c:	e1540003 	cmp	r4, r3
  401570:	0a000149 	beq	401a9c <_malloc_r+0x590>
  401574:	e5943004 	ldr	r3, [r4, #4]
  401578:	e3c33003 	bic	r3, r3, #3
  40157c:	e0843003 	add	r3, r4, r3
  401580:	e593c004 	ldr	ip, [r3, #4]
  401584:	e2841008 	add	r1, r4, #8
  401588:	e8910006 	ldm	r1, {r1, r2}
  40158c:	e38cc001 	orr	ip, ip, #1
  401590:	e581200c 	str	r2, [r1, #12]
  401594:	e1a00006 	mov	r0, r6
  401598:	e5821008 	str	r1, [r2, #8]
  40159c:	e583c004 	str	ip, [r3, #4]
  4015a0:	eb0001ad 	bl	401c5c <__malloc_unlock>
  4015a4:	e2844008 	add	r4, r4, #8
  4015a8:	e1a00004 	mov	r0, r4
  4015ac:	e28dd00c 	add	sp, sp, #12
  4015b0:	e8bd4ff0 	pop	{r4, r5, r6, r7, r8, r9, sl, fp, lr}
  4015b4:	e12fff1e 	bx	lr
  4015b8:	e1b0e4a5 	lsrs	lr, r5, #9
  4015bc:	03a0107e 	moveq	r1, #126	; 0x7e
  4015c0:	03a0e03f 	moveq	lr, #63	; 0x3f
  4015c4:	1a000061 	bne	401750 <_malloc_r+0x244>
  4015c8:	e59f766c 	ldr	r7, [pc, #1644]	; 401c3c <_malloc_r+0x730>
  4015cc:	e0871101 	add	r1, r7, r1, lsl #2
  4015d0:	e591400c 	ldr	r4, [r1, #12]
  4015d4:	e1510004 	cmp	r1, r4
  4015d8:	1a000005 	bne	4015f4 <_malloc_r+0xe8>
  4015dc:	ea00000a 	b	40160c <_malloc_r+0x100>
  4015e0:	e3530000 	cmp	r3, #0
  4015e4:	aa0000e2 	bge	401974 <_malloc_r+0x468>
  4015e8:	e594400c 	ldr	r4, [r4, #12]
  4015ec:	e1510004 	cmp	r1, r4
  4015f0:	0a000005 	beq	40160c <_malloc_r+0x100>
  4015f4:	e5942004 	ldr	r2, [r4, #4]
  4015f8:	e3c22003 	bic	r2, r2, #3
  4015fc:	e0653002 	rsb	r3, r5, r2
  401600:	e353000f 	cmp	r3, #15
  401604:	dafffff5 	ble	4015e0 <_malloc_r+0xd4>
  401608:	e24ee001 	sub	lr, lr, #1
  40160c:	e28ee001 	add	lr, lr, #1
  401610:	e59f3624 	ldr	r3, [pc, #1572]	; 401c3c <_malloc_r+0x730>
  401614:	e5974010 	ldr	r4, [r7, #16]
  401618:	e2838008 	add	r8, r3, #8
  40161c:	e1540008 	cmp	r4, r8
  401620:	05931004 	ldreq	r1, [r3, #4]
  401624:	0a000016 	beq	401684 <_malloc_r+0x178>
  401628:	e5942004 	ldr	r2, [r4, #4]
  40162c:	e3c22003 	bic	r2, r2, #3
  401630:	e0651002 	rsb	r1, r5, r2
  401634:	e351000f 	cmp	r1, #15
  401638:	ca000105 	bgt	401a54 <_malloc_r+0x548>
  40163c:	e3510000 	cmp	r1, #0
  401640:	e5838014 	str	r8, [r3, #20]
  401644:	e5838010 	str	r8, [r3, #16]
  401648:	aa000046 	bge	401768 <_malloc_r+0x25c>
  40164c:	e3520c02 	cmp	r2, #512	; 0x200
  401650:	2a0000e0 	bcs	4019d8 <_malloc_r+0x4cc>
  401654:	e5930004 	ldr	r0, [r3, #4]
  401658:	e1a021a2 	lsr	r2, r2, #3
  40165c:	e1a01142 	asr	r1, r2, #2
  401660:	e3a0c001 	mov	ip, #1
  401664:	e180111c 	orr	r1, r0, ip, lsl r1
  401668:	e0832182 	add	r2, r3, r2, lsl #3
  40166c:	e5920008 	ldr	r0, [r2, #8]
  401670:	e5831004 	str	r1, [r3, #4]
  401674:	e5840008 	str	r0, [r4, #8]
  401678:	e584200c 	str	r2, [r4, #12]
  40167c:	e5824008 	str	r4, [r2, #8]
  401680:	e580400c 	str	r4, [r0, #12]
  401684:	e1a0314e 	asr	r3, lr, #2
  401688:	e3a00001 	mov	r0, #1
  40168c:	e1a00310 	lsl	r0, r0, r3
  401690:	e1500001 	cmp	r0, r1
  401694:	8a00003e 	bhi	401794 <_malloc_r+0x288>
  401698:	e1110000 	tst	r1, r0
  40169c:	1a000008 	bne	4016c4 <_malloc_r+0x1b8>
  4016a0:	e1a00080 	lsl	r0, r0, #1
  4016a4:	e3cee003 	bic	lr, lr, #3
  4016a8:	e1110000 	tst	r1, r0
  4016ac:	e28ee004 	add	lr, lr, #4
  4016b0:	1a000003 	bne	4016c4 <_malloc_r+0x1b8>
  4016b4:	e1a00080 	lsl	r0, r0, #1
  4016b8:	e1110000 	tst	r1, r0
  4016bc:	e28ee004 	add	lr, lr, #4
  4016c0:	0afffffb 	beq	4016b4 <_malloc_r+0x1a8>
  4016c4:	e087418e 	add	r4, r7, lr, lsl #3
  4016c8:	e1a0c004 	mov	ip, r4
  4016cc:	e1a0900e 	mov	r9, lr
  4016d0:	e59c300c 	ldr	r3, [ip, #12]
  4016d4:	e15c0003 	cmp	ip, r3
  4016d8:	1a000005 	bne	4016f4 <_malloc_r+0x1e8>
  4016dc:	ea0000e9 	b	401a88 <_malloc_r+0x57c>
  4016e0:	e3520000 	cmp	r2, #0
  4016e4:	aa0000f2 	bge	401ab4 <_malloc_r+0x5a8>
  4016e8:	e593300c 	ldr	r3, [r3, #12]
  4016ec:	e15c0003 	cmp	ip, r3
  4016f0:	0a0000e4 	beq	401a88 <_malloc_r+0x57c>
  4016f4:	e5931004 	ldr	r1, [r3, #4]
  4016f8:	e3c11003 	bic	r1, r1, #3
  4016fc:	e0652001 	rsb	r2, r5, r1
  401700:	e352000f 	cmp	r2, #15
  401704:	dafffff5 	ble	4016e0 <_malloc_r+0x1d4>
  401708:	e1a04003 	mov	r4, r3
  40170c:	e5b4c008 	ldr	ip, [r4, #8]!
  401710:	e593100c 	ldr	r1, [r3, #12]
  401714:	e3859001 	orr	r9, r5, #1
  401718:	e382e001 	orr	lr, r2, #1
  40171c:	e0835005 	add	r5, r3, r5
  401720:	e5839004 	str	r9, [r3, #4]
  401724:	e1a00006 	mov	r0, r6
  401728:	e58c100c 	str	r1, [ip, #12]
  40172c:	e581c008 	str	ip, [r1, #8]
  401730:	e5875014 	str	r5, [r7, #20]
  401734:	e5875010 	str	r5, [r7, #16]
  401738:	e585800c 	str	r8, [r5, #12]
  40173c:	e5858008 	str	r8, [r5, #8]
  401740:	e585e004 	str	lr, [r5, #4]
  401744:	e7852002 	str	r2, [r5, r2]
  401748:	eb000143 	bl	401c5c <__malloc_unlock>
  40174c:	eaffff95 	b	4015a8 <_malloc_r+0x9c>
  401750:	e35e0004 	cmp	lr, #4
  401754:	8a000095 	bhi	4019b0 <_malloc_r+0x4a4>
  401758:	e1a0e325 	lsr	lr, r5, #6
  40175c:	e28ee038 	add	lr, lr, #56	; 0x38
  401760:	e1a0108e 	lsl	r1, lr, #1
  401764:	eaffff97 	b	4015c8 <_malloc_r+0xbc>
  401768:	e0842002 	add	r2, r4, r2
  40176c:	e5923004 	ldr	r3, [r2, #4]
  401770:	e3833001 	orr	r3, r3, #1
  401774:	e1a00006 	mov	r0, r6
  401778:	e5823004 	str	r3, [r2, #4]
  40177c:	eb000136 	bl	401c5c <__malloc_unlock>
  401780:	e2844008 	add	r4, r4, #8
  401784:	e1a00004 	mov	r0, r4
  401788:	e28dd00c 	add	sp, sp, #12
  40178c:	e8bd4ff0 	pop	{r4, r5, r6, r7, r8, r9, sl, fp, lr}
  401790:	e12fff1e 	bx	lr
  401794:	e5974008 	ldr	r4, [r7, #8]
  401798:	e5949004 	ldr	r9, [r4, #4]
  40179c:	e3c99003 	bic	r9, r9, #3
  4017a0:	e1550009 	cmp	r5, r9
  4017a4:	8a000002 	bhi	4017b4 <_malloc_r+0x2a8>
  4017a8:	e0653009 	rsb	r3, r5, r9
  4017ac:	e353000f 	cmp	r3, #15
  4017b0:	ca000062 	bgt	401940 <_malloc_r+0x434>
  4017b4:	e59fc484 	ldr	ip, [pc, #1156]	; 401c40 <_malloc_r+0x734>
  4017b8:	e59f2484 	ldr	r2, [pc, #1156]	; 401c44 <_malloc_r+0x738>
  4017bc:	e59c3000 	ldr	r3, [ip]
  4017c0:	e592b000 	ldr	fp, [r2]
  4017c4:	e3730001 	cmn	r3, #1
  4017c8:	e085b00b 	add	fp, r5, fp
  4017cc:	128bba01 	addne	fp, fp, #4096	; 0x1000
  4017d0:	128bb00f 	addne	fp, fp, #15
  4017d4:	13cbbeff 	bicne	fp, fp, #4080	; 0xff0
  4017d8:	028bb010 	addeq	fp, fp, #16
  4017dc:	13cbb00f 	bicne	fp, fp, #15
  4017e0:	e0842009 	add	r2, r4, r9
  4017e4:	e1a00006 	mov	r0, r6
  4017e8:	e1a0100b 	mov	r1, fp
  4017ec:	e58d2004 	str	r2, [sp, #4]
  4017f0:	e58dc000 	str	ip, [sp]
  4017f4:	eb000119 	bl	401c60 <_sbrk_r>
  4017f8:	e3700001 	cmn	r0, #1
  4017fc:	e1a08000 	mov	r8, r0
  401800:	e59d2004 	ldr	r2, [sp, #4]
  401804:	e59dc000 	ldr	ip, [sp]
  401808:	0a0000bb 	beq	401afc <_malloc_r+0x5f0>
  40180c:	e1520000 	cmp	r2, r0
  401810:	8a0000b7 	bhi	401af4 <_malloc_r+0x5e8>
  401814:	e59fa42c 	ldr	sl, [pc, #1068]	; 401c48 <_malloc_r+0x73c>
  401818:	e59a3000 	ldr	r3, [sl]
  40181c:	e1520008 	cmp	r2, r8
  401820:	e08b3003 	add	r3, fp, r3
  401824:	e58a3000 	str	r3, [sl]
  401828:	0a0000e8 	beq	401bd0 <_malloc_r+0x6c4>
  40182c:	e59c1000 	ldr	r1, [ip]
  401830:	e3710001 	cmn	r1, #1
  401834:	10622008 	rsbne	r2, r2, r8
  401838:	e59f1400 	ldr	r1, [pc, #1024]	; 401c40 <_malloc_r+0x734>
  40183c:	10833002 	addne	r3, r3, r2
  401840:	05818000 	streq	r8, [r1]
  401844:	158a3000 	strne	r3, [sl]
  401848:	e2183007 	ands	r3, r8, #7
  40184c:	12632008 	rsbne	r2, r3, #8
  401850:	10888002 	addne	r8, r8, r2
  401854:	12633a01 	rsbne	r3, r3, #4096	; 0x1000
  401858:	12832008 	addne	r2, r3, #8
  40185c:	e088300b 	add	r3, r8, fp
  401860:	03a02a01 	moveq	r2, #4096	; 0x1000
  401864:	e1a03a03 	lsl	r3, r3, #20
  401868:	e042ba23 	sub	fp, r2, r3, lsr #20
  40186c:	e1a0100b 	mov	r1, fp
  401870:	e1a00006 	mov	r0, r6
  401874:	eb0000f9 	bl	401c60 <_sbrk_r>
  401878:	e3700001 	cmn	r0, #1
  40187c:	10682000 	rsbne	r2, r8, r0
  401880:	e59a3000 	ldr	r3, [sl]
  401884:	108b2002 	addne	r2, fp, r2
  401888:	03a0b000 	moveq	fp, #0
  40188c:	13822001 	orrne	r2, r2, #1
  401890:	03a02001 	moveq	r2, #1
  401894:	e08b3003 	add	r3, fp, r3
  401898:	e1540007 	cmp	r4, r7
  40189c:	e5878008 	str	r8, [r7, #8]
  4018a0:	e58a3000 	str	r3, [sl]
  4018a4:	e5882004 	str	r2, [r8, #4]
  4018a8:	e59fa398 	ldr	sl, [pc, #920]	; 401c48 <_malloc_r+0x73c>
  4018ac:	0a00000d 	beq	4018e8 <_malloc_r+0x3dc>
  4018b0:	e359000f 	cmp	r9, #15
  4018b4:	9a0000b1 	bls	401b80 <_malloc_r+0x674>
  4018b8:	e5940004 	ldr	r0, [r4, #4]
  4018bc:	e249200c 	sub	r2, r9, #12
  4018c0:	e3c22007 	bic	r2, r2, #7
  4018c4:	e2000001 	and	r0, r0, #1
  4018c8:	e1820000 	orr	r0, r2, r0
  4018cc:	e3a01005 	mov	r1, #5
  4018d0:	e352000f 	cmp	r2, #15
  4018d4:	e0842002 	add	r2, r4, r2
  4018d8:	e5840004 	str	r0, [r4, #4]
  4018dc:	e5821004 	str	r1, [r2, #4]
  4018e0:	e5821008 	str	r1, [r2, #8]
  4018e4:	8a0000c0 	bhi	401bec <_malloc_r+0x6e0>
  4018e8:	e59f235c 	ldr	r2, [pc, #860]	; 401c4c <_malloc_r+0x740>
  4018ec:	e5921000 	ldr	r1, [r2]
  4018f0:	e1530001 	cmp	r3, r1
  4018f4:	85823000 	strhi	r3, [r2]
  4018f8:	e59f2350 	ldr	r2, [pc, #848]	; 401c50 <_malloc_r+0x744>
  4018fc:	e5921000 	ldr	r1, [r2]
  401900:	e5974008 	ldr	r4, [r7, #8]
  401904:	e1530001 	cmp	r3, r1
  401908:	95943004 	ldrls	r3, [r4, #4]
  40190c:	85941004 	ldrhi	r1, [r4, #4]
  401910:	85823000 	strhi	r3, [r2]
  401914:	93c33003 	bicls	r3, r3, #3
  401918:	83c13003 	bichi	r3, r1, #3
  40191c:	e1550003 	cmp	r5, r3
  401920:	e0653003 	rsb	r3, r5, r3
  401924:	8a000001 	bhi	401930 <_malloc_r+0x424>
  401928:	e353000f 	cmp	r3, #15
  40192c:	ca000003 	bgt	401940 <_malloc_r+0x434>
  401930:	e1a00006 	mov	r0, r6
  401934:	eb0000c8 	bl	401c5c <__malloc_unlock>
  401938:	e3a04000 	mov	r4, #0
  40193c:	eaffff19 	b	4015a8 <_malloc_r+0x9c>
  401940:	e3852001 	orr	r2, r5, #1
  401944:	e3833001 	orr	r3, r3, #1
  401948:	e0845005 	add	r5, r4, r5
  40194c:	e5842004 	str	r2, [r4, #4]
  401950:	e1a00006 	mov	r0, r6
  401954:	e5875008 	str	r5, [r7, #8]
  401958:	e5853004 	str	r3, [r5, #4]
  40195c:	eb0000be 	bl	401c5c <__malloc_unlock>
  401960:	e2844008 	add	r4, r4, #8
  401964:	e1a00004 	mov	r0, r4
  401968:	e28dd00c 	add	sp, sp, #12
  40196c:	e8bd4ff0 	pop	{r4, r5, r6, r7, r8, r9, sl, fp, lr}
  401970:	e12fff1e 	bx	lr
  401974:	e0842002 	add	r2, r4, r2
  401978:	e592c004 	ldr	ip, [r2, #4]
  40197c:	e2841008 	add	r1, r4, #8
  401980:	e891000a 	ldm	r1, {r1, r3}
  401984:	e38cc001 	orr	ip, ip, #1
  401988:	e581300c 	str	r3, [r1, #12]
  40198c:	e1a00006 	mov	r0, r6
  401990:	e5831008 	str	r1, [r3, #8]
  401994:	e582c004 	str	ip, [r2, #4]
  401998:	eb0000af 	bl	401c5c <__malloc_unlock>
  40199c:	e2844008 	add	r4, r4, #8
  4019a0:	e1a00004 	mov	r0, r4
  4019a4:	e28dd00c 	add	sp, sp, #12
  4019a8:	e8bd4ff0 	pop	{r4, r5, r6, r7, r8, r9, sl, fp, lr}
  4019ac:	e12fff1e 	bx	lr
  4019b0:	e35e0014 	cmp	lr, #20
  4019b4:	928ee05b 	addls	lr, lr, #91	; 0x5b
  4019b8:	91a0108e 	lslls	r1, lr, #1
  4019bc:	9affff01 	bls	4015c8 <_malloc_r+0xbc>
  4019c0:	e35e0054 	cmp	lr, #84	; 0x54
  4019c4:	8a000067 	bhi	401b68 <_malloc_r+0x65c>
  4019c8:	e1a0e625 	lsr	lr, r5, #12
  4019cc:	e28ee06e 	add	lr, lr, #110	; 0x6e
  4019d0:	e1a0108e 	lsl	r1, lr, #1
  4019d4:	eafffefb 	b	4015c8 <_malloc_r+0xbc>
  4019d8:	e1a034a2 	lsr	r3, r2, #9
  4019dc:	e3530004 	cmp	r3, #4
  4019e0:	9a00003f 	bls	401ae4 <_malloc_r+0x5d8>
  4019e4:	e3530014 	cmp	r3, #20
  4019e8:	9283105b 	addls	r1, r3, #91	; 0x5b
  4019ec:	91a00081 	lslls	r0, r1, #1
  4019f0:	9a000004 	bls	401a08 <_malloc_r+0x4fc>
  4019f4:	e3530054 	cmp	r3, #84	; 0x54
  4019f8:	8a000080 	bhi	401c00 <_malloc_r+0x6f4>
  4019fc:	e1a01622 	lsr	r1, r2, #12
  401a00:	e281106e 	add	r1, r1, #110	; 0x6e
  401a04:	e1a00081 	lsl	r0, r1, #1
  401a08:	e0870100 	add	r0, r7, r0, lsl #2
  401a0c:	e5903008 	ldr	r3, [r0, #8]
  401a10:	e1530000 	cmp	r3, r0
  401a14:	e59fc220 	ldr	ip, [pc, #544]	; 401c3c <_malloc_r+0x730>
  401a18:	0a00005d 	beq	401b94 <_malloc_r+0x688>
  401a1c:	e5931004 	ldr	r1, [r3, #4]
  401a20:	e3c11003 	bic	r1, r1, #3
  401a24:	e1520001 	cmp	r2, r1
  401a28:	2a000002 	bcs	401a38 <_malloc_r+0x52c>
  401a2c:	e5933008 	ldr	r3, [r3, #8]
  401a30:	e1500003 	cmp	r0, r3
  401a34:	1afffff8 	bne	401a1c <_malloc_r+0x510>
  401a38:	e593200c 	ldr	r2, [r3, #12]
  401a3c:	e5971004 	ldr	r1, [r7, #4]
  401a40:	e584200c 	str	r2, [r4, #12]
  401a44:	e5843008 	str	r3, [r4, #8]
  401a48:	e5824008 	str	r4, [r2, #8]
  401a4c:	e583400c 	str	r4, [r3, #12]
  401a50:	eaffff0b 	b	401684 <_malloc_r+0x178>
  401a54:	e385c001 	orr	ip, r5, #1
  401a58:	e3812001 	orr	r2, r1, #1
  401a5c:	e0845005 	add	r5, r4, r5
  401a60:	e584c004 	str	ip, [r4, #4]
  401a64:	e1a00006 	mov	r0, r6
  401a68:	e5835014 	str	r5, [r3, #20]
  401a6c:	e5835010 	str	r5, [r3, #16]
  401a70:	e585800c 	str	r8, [r5, #12]
  401a74:	e9850104 	stmib	r5, {r2, r8}
  401a78:	e7851001 	str	r1, [r5, r1]
  401a7c:	e2844008 	add	r4, r4, #8
  401a80:	eb000075 	bl	401c5c <__malloc_unlock>
  401a84:	eafffec7 	b	4015a8 <_malloc_r+0x9c>
  401a88:	e2899001 	add	r9, r9, #1
  401a8c:	e3190003 	tst	r9, #3
  401a90:	e28cc008 	add	ip, ip, #8
  401a94:	1affff0d 	bne	4016d0 <_malloc_r+0x1c4>
  401a98:	ea00001f 	b	401b1c <_malloc_r+0x610>
  401a9c:	e2843008 	add	r3, r4, #8
  401aa0:	e5944014 	ldr	r4, [r4, #20]
  401aa4:	e1530004 	cmp	r3, r4
  401aa8:	028ee002 	addeq	lr, lr, #2
  401aac:	0afffed7 	beq	401610 <_malloc_r+0x104>
  401ab0:	eafffeaf 	b	401574 <_malloc_r+0x68>
  401ab4:	e0831001 	add	r1, r3, r1
  401ab8:	e591c004 	ldr	ip, [r1, #4]
  401abc:	e1a04003 	mov	r4, r3
  401ac0:	e5b42008 	ldr	r2, [r4, #8]!
  401ac4:	e593300c 	ldr	r3, [r3, #12]
  401ac8:	e38cc001 	orr	ip, ip, #1
  401acc:	e581c004 	str	ip, [r1, #4]
  401ad0:	e1a00006 	mov	r0, r6
  401ad4:	e582300c 	str	r3, [r2, #12]
  401ad8:	e5832008 	str	r2, [r3, #8]
  401adc:	eb00005e 	bl	401c5c <__malloc_unlock>
  401ae0:	eafffeb0 	b	4015a8 <_malloc_r+0x9c>
  401ae4:	e1a01322 	lsr	r1, r2, #6
  401ae8:	e2811038 	add	r1, r1, #56	; 0x38
  401aec:	e1a00081 	lsl	r0, r1, #1
  401af0:	eaffffc4 	b	401a08 <_malloc_r+0x4fc>
  401af4:	e1540007 	cmp	r4, r7
  401af8:	0affff45 	beq	401814 <_malloc_r+0x308>
  401afc:	e5974008 	ldr	r4, [r7, #8]
  401b00:	e5943004 	ldr	r3, [r4, #4]
  401b04:	e3c33003 	bic	r3, r3, #3
  401b08:	eaffff83 	b	40191c <_malloc_r+0x410>
  401b0c:	e5944000 	ldr	r4, [r4]
  401b10:	e1540003 	cmp	r4, r3
  401b14:	e24ee001 	sub	lr, lr, #1
  401b18:	1a000045 	bne	401c34 <_malloc_r+0x728>
  401b1c:	e31e0003 	tst	lr, #3
  401b20:	e2443008 	sub	r3, r4, #8
  401b24:	1afffff8 	bne	401b0c <_malloc_r+0x600>
  401b28:	e5973004 	ldr	r3, [r7, #4]
  401b2c:	e1c33000 	bic	r3, r3, r0
  401b30:	e5873004 	str	r3, [r7, #4]
  401b34:	e1a00080 	lsl	r0, r0, #1
  401b38:	e1500003 	cmp	r0, r3
  401b3c:	8affff14 	bhi	401794 <_malloc_r+0x288>
  401b40:	e3500000 	cmp	r0, #0
  401b44:	0affff12 	beq	401794 <_malloc_r+0x288>
  401b48:	e1130000 	tst	r3, r0
  401b4c:	e1a0e009 	mov	lr, r9
  401b50:	1afffedb 	bne	4016c4 <_malloc_r+0x1b8>
  401b54:	e1a00080 	lsl	r0, r0, #1
  401b58:	e1130000 	tst	r3, r0
  401b5c:	e28ee004 	add	lr, lr, #4
  401b60:	0afffffb 	beq	401b54 <_malloc_r+0x648>
  401b64:	eafffed6 	b	4016c4 <_malloc_r+0x1b8>
  401b68:	e35e0f55 	cmp	lr, #340	; 0x154
  401b6c:	8a00000f 	bhi	401bb0 <_malloc_r+0x6a4>
  401b70:	e1a0e7a5 	lsr	lr, r5, #15
  401b74:	e28ee077 	add	lr, lr, #119	; 0x77
  401b78:	e1a0108e 	lsl	r1, lr, #1
  401b7c:	eafffe91 	b	4015c8 <_malloc_r+0xbc>
  401b80:	e3a03001 	mov	r3, #1
  401b84:	e5883004 	str	r3, [r8, #4]
  401b88:	e1a04008 	mov	r4, r8
  401b8c:	e3a03000 	mov	r3, #0
  401b90:	eaffff61 	b	40191c <_malloc_r+0x410>
  401b94:	e59c2004 	ldr	r2, [ip, #4]
  401b98:	e1a01141 	asr	r1, r1, #2
  401b9c:	e3a00001 	mov	r0, #1
  401ba0:	e1821110 	orr	r1, r2, r0, lsl r1
  401ba4:	e1a02003 	mov	r2, r3
  401ba8:	e58c1004 	str	r1, [ip, #4]
  401bac:	eaffffa3 	b	401a40 <_malloc_r+0x534>
  401bb0:	e59f309c 	ldr	r3, [pc, #156]	; 401c54 <_malloc_r+0x748>
  401bb4:	e15e0003 	cmp	lr, r3
  401bb8:	91a0e925 	lsrls	lr, r5, #18
  401bbc:	928ee07c 	addls	lr, lr, #124	; 0x7c
  401bc0:	91a0108e 	lslls	r1, lr, #1
  401bc4:	83a010fc 	movhi	r1, #252	; 0xfc
  401bc8:	83a0e07e 	movhi	lr, #126	; 0x7e
  401bcc:	eafffe7d 	b	4015c8 <_malloc_r+0xbc>
  401bd0:	e1b01a02 	lsls	r1, r2, #20
  401bd4:	1affff14 	bne	40182c <_malloc_r+0x320>
  401bd8:	e08b1009 	add	r1, fp, r9
  401bdc:	e5972008 	ldr	r2, [r7, #8]
  401be0:	e3811001 	orr	r1, r1, #1
  401be4:	e5821004 	str	r1, [r2, #4]
  401be8:	eaffff3e 	b	4018e8 <_malloc_r+0x3dc>
  401bec:	e2841008 	add	r1, r4, #8
  401bf0:	e1a00006 	mov	r0, r6
  401bf4:	ebfffda9 	bl	4012a0 <_free_r>
  401bf8:	e59a3000 	ldr	r3, [sl]
  401bfc:	eaffff39 	b	4018e8 <_malloc_r+0x3dc>
  401c00:	e3530f55 	cmp	r3, #340	; 0x154
  401c04:	91a017a2 	lsrls	r1, r2, #15
  401c08:	92811077 	addls	r1, r1, #119	; 0x77
  401c0c:	91a00081 	lslls	r0, r1, #1
  401c10:	9affff7c 	bls	401a08 <_malloc_r+0x4fc>
  401c14:	e59f1038 	ldr	r1, [pc, #56]	; 401c54 <_malloc_r+0x748>
  401c18:	e1530001 	cmp	r3, r1
  401c1c:	91a01922 	lsrls	r1, r2, #18
  401c20:	9281107c 	addls	r1, r1, #124	; 0x7c
  401c24:	91a00081 	lslls	r0, r1, #1
  401c28:	83a000fc 	movhi	r0, #252	; 0xfc
  401c2c:	83a0107e 	movhi	r1, #126	; 0x7e
  401c30:	eaffff74 	b	401a08 <_malloc_r+0x4fc>
  401c34:	e5973004 	ldr	r3, [r7, #4]
  401c38:	eaffffbd 	b	401b34 <_malloc_r+0x628>
  401c3c:	004022b4 	strheq	r2, [r0], #-36	; 0xffffffdc
  401c40:	004026c0 	subeq	r2, r0, r0, asr #13
  401c44:	00402b60 	subeq	r2, r0, r0, ror #22
  401c48:	00402b64 	subeq	r2, r0, r4, ror #22
  401c4c:	00402b5c 	subeq	r2, r0, ip, asr fp
  401c50:	00402b58 	subeq	r2, r0, r8, asr fp
  401c54:	00000554 	andeq	r0, r0, r4, asr r5

Disassembly of section .text.__malloc_lock:

00401c58 <__malloc_lock>:
  401c58:	e12fff1e 	bx	lr

Disassembly of section .text.__malloc_unlock:

00401c5c <__malloc_unlock>:
  401c5c:	e12fff1e 	bx	lr

Disassembly of section .text._sbrk_r:

00401c60 <_sbrk_r>:
  401c60:	e92d4038 	push	{r3, r4, r5, lr}
  401c64:	e59f4034 	ldr	r4, [pc, #52]	; 401ca0 <_sbrk_r+0x40>
  401c68:	e3a03000 	mov	r3, #0
  401c6c:	e1a05000 	mov	r5, r0
  401c70:	e1a00001 	mov	r0, r1
  401c74:	e5843000 	str	r3, [r4]
  401c78:	ebfffc21 	bl	400d04 <_sbrk>
  401c7c:	e3700001 	cmn	r0, #1
  401c80:	0a000001 	beq	401c8c <_sbrk_r+0x2c>
  401c84:	e8bd4038 	pop	{r3, r4, r5, lr}
  401c88:	e12fff1e 	bx	lr
  401c8c:	e5943000 	ldr	r3, [r4]
  401c90:	e3530000 	cmp	r3, #0
  401c94:	15853000 	strne	r3, [r5]
  401c98:	e8bd4038 	pop	{r3, r4, r5, lr}
  401c9c:	e12fff1e 	bx	lr
  401ca0:	00402b54 	subeq	r2, r0, r4, asr fp
